	.file	"compound_interest.c"
	.text
Ltext0:
	.globl	_Compound_Interest_Calculation
	.def	_Compound_Interest_Calculation;	.scl	2;	.type	32;	.endef
_Compound_Interest_Calculation:
LFB26:
	.file 1 "G:/My_SVN/Git/MyPrograms/Others/Completed/Interest_Calculation/platform/Windows/../../code/Compound_Interest.c"
	.loc 1 18 1
	.cfi_startproc
	pushl	%ebp
	.cfi_def_cfa_offset 8
	.cfi_offset 5, -8
	movl	%esp, %ebp
	.cfi_def_cfa_register 5
	subl	$56, %esp
	.loc 1 19 9
	fldz
	fstps	-12(%ebp)
	.loc 1 21 27
	movl	8(%ebp), %eax
	flds	16(%eax)
	.loc 1 21 31
	flds	LC1
	fdivrp	%st, %st(1)
	.loc 1 21 50
	movl	8(%ebp), %eax
	movl	20(%eax), %eax
	.loc 1 21 38
	movl	%eax, -32(%ebp)
	movl	$0, -28(%ebp)
	fildq	-32(%ebp)
	fdivrp	%st, %st(1)
	.loc 1 21 8
	fld1
	faddp	%st, %st(1)
	fstps	-12(%ebp)
	.loc 1 22 31
	movl	8(%ebp), %eax
	movl	20(%eax), %eax
	.loc 1 22 35
	movl	%eax, -32(%ebp)
	movl	$0, -28(%ebp)
	fildq	-32(%ebp)
	.loc 1 22 47
	movl	8(%ebp), %eax
	flds	24(%eax)
	.loc 1 22 35
	fmulp	%st, %st(1)
	.loc 1 22 10
	flds	-12(%ebp)
	fxch	%st(1)
	fstpl	8(%esp)
	fstpl	(%esp)
	call	_pow
	.loc 1 22 8
	fstps	-12(%ebp)
	.loc 1 24 29
	movl	8(%ebp), %eax
	fldl	8(%eax)
	.loc 1 24 33
	flds	-12(%ebp)
	fmulp	%st, %st(1)
	.loc 1 24 17
	movl	8(%ebp), %eax
	fstpl	(%eax)
	.loc 1 25 1
	nop
	leave
	.cfi_restore 5
	.cfi_def_cfa 4, 4
	ret
	.cfi_endproc
LFE26:
	.section .rdata,"dr"
	.align 4
LC1:
	.long	1120403456
	.text
Letext0:
	.file 2 "g:/my_svn/git/myprograms/others/completed/interest_calculation/code/Typedef.h"
	.file 3 "c:/mingw/include/stdlib.h"
	.file 4 "c:/mingw/include/stdio.h"