	.file	"printf_own_fn.c"
	.text
Ltext0:
	.globl	_myprintf
	.def	_myprintf;	.scl	2;	.type	32;	.endef
_myprintf:
LFB13:
	.file 1 "G:/My_SVN/Git/MyPrograms/Others/Completed/printf_Own_Fn/platform/Windows/../../code/printf_Own_Fn.c"
	.loc 1 6 1
	.cfi_startproc
	pushl	%ebp
	.cfi_def_cfa_offset 8
	.cfi_offset 5, -8
	movl	%esp, %ebp
	.cfi_def_cfa_register 5
	subl	$56, %esp
	.loc 1 23 2
	leal	12(%ebp), %eax
	movl	%eax, -28(%ebp)
	.loc 1 26 5
	movl	8(%ebp), %eax
	movl	%eax, -12(%ebp)
	.loc 1 29 10
	movl	8(%ebp), %eax
	movl	%eax, -12(%ebp)
	.loc 1 29 3
	jmp	L2
L14:
	.loc 1 32 8
	movl	-12(%ebp), %eax
	movzbl	(%eax), %eax
	.loc 1 32 7
	cmpb	$37, %al
	je	L3
	.loc 1 35 15
	movl	-12(%ebp), %eax
	movzbl	(%eax), %eax
	.loc 1 35 7
	movsbl	%al, %eax
	movl	%eax, (%esp)
	call	_putchar
	.loc 1 38 7
	jmp	L4
L3:
	.loc 1 42 6
	addl	$1, -12(%ebp)
	.loc 1 44 13
	movl	-12(%ebp), %eax
	movzbl	(%eax), %eax
	movsbl	%al, %eax
	.loc 1 44 5
	cmpl	$37, %eax
	je	L5
	cmpl	$37, %eax
	jl	L4
	cmpl	$120, %eax
	jg	L4
	cmpl	$88, %eax
	jl	L4
	subl	$88, %eax
	cmpl	$32, %eax
	ja	L4
	movl	L7(,%eax,4), %eax
	jmp	*%eax
	.section .rdata,"dr"
	.align 4
L7:
	.long	L6
	.long	L4
	.long	L4
	.long	L4
	.long	L4
	.long	L4
	.long	L4
	.long	L4
	.long	L4
	.long	L4
	.long	L4
	.long	L12
	.long	L11
	.long	L4
	.long	L4
	.long	L4
	.long	L4
	.long	L11
	.long	L4
	.long	L4
	.long	L4
	.long	L4
	.long	L4
	.long	L10
	.long	L4
	.long	L4
	.long	L4
	.long	L9
	.long	L4
	.long	L8
	.long	L4
	.long	L4
	.long	L6
	.text
L12:
	.loc 1 48 9
	movl	-28(%ebp), %eax
	leal	4(%eax), %edx
	movl	%edx, -28(%ebp)
	movl	(%eax), %eax
	movl	%eax, -16(%ebp)
	.loc 1 51 7
	movl	-16(%ebp), %eax
	movl	%eax, (%esp)
	call	_putchar
	.loc 1 52 5
	jmp	L4
L9:
	.loc 1 56 8
	movl	-28(%ebp), %eax
	leal	4(%eax), %edx
	movl	%edx, -28(%ebp)
	movl	(%eax), %eax
	movl	%eax, -24(%ebp)
	.loc 1 59 7
	movl	-24(%ebp), %eax
	movl	%eax, (%esp)
	call	_puts
	.loc 1 60 5
	jmp	L4
L11:
	.loc 1 66 9
	movl	-28(%ebp), %eax
	leal	4(%eax), %edx
	movl	%edx, -28(%ebp)
	movl	(%eax), %eax
	movl	%eax, -16(%ebp)
	.loc 1 69 10
	cmpl	$0, -16(%ebp)
	jns	L13
	.loc 1 72 11
	negl	-16(%ebp)
	.loc 1 75 9
	movl	$45, (%esp)
	call	_putchar
L13:
	.loc 1 79 12
	movl	-16(%ebp), %eax
	movl	$10, 4(%esp)
	movl	%eax, (%esp)
	call	_convert
	.loc 1 79 7
	movl	%eax, (%esp)
	call	_puts
	.loc 1 80 5
	jmp	L4
L8:
	.loc 1 84 9
	movl	-28(%ebp), %eax
	leal	4(%eax), %edx
	movl	%edx, -28(%ebp)
	movl	(%eax), %eax
	movl	%eax, -20(%ebp)
	.loc 1 87 12
	movl	$10, 4(%esp)
	movl	-20(%ebp), %eax
	movl	%eax, (%esp)
	call	_convert
	.loc 1 87 7
	movl	%eax, (%esp)
	call	_puts
	.loc 1 88 5
	jmp	L4
L10:
	.loc 1 92 10
	movl	-28(%ebp), %eax
	leal	4(%eax), %edx
	movl	%edx, -28(%ebp)
	movl	(%eax), %eax
	.loc 1 92 9
	movl	%eax, -16(%ebp)
	.loc 1 95 12
	movl	-16(%ebp), %eax
	movl	$8, 4(%esp)
	movl	%eax, (%esp)
	call	_convert
	.loc 1 95 7
	movl	%eax, (%esp)
	call	_puts
	.loc 1 96 5
	jmp	L4
L6:
	.loc 1 102 9
	movl	-28(%ebp), %eax
	leal	4(%eax), %edx
	movl	%edx, -28(%ebp)
	movl	(%eax), %eax
	movl	%eax, -20(%ebp)
	.loc 1 105 12
	movl	$16, 4(%esp)
	movl	-20(%ebp), %eax
	movl	%eax, (%esp)
	call	_convert
	.loc 1 105 7
	movl	%eax, (%esp)
	call	_puts
	.loc 1 106 5
	jmp	L4
L5:
	.loc 1 110 7
	movl	$37, (%esp)
	call	_putchar
	.loc 1 111 5
	nop
L4:
	.loc 1 29 31 discriminator 2
	addl	$1, -12(%ebp)
L2:
	.loc 1 29 18 discriminator 1
	movl	-12(%ebp), %eax
	movzbl	(%eax), %eax
	.loc 1 29 3 discriminator 1
	testb	%al, %al
	jne	L14
	.loc 1 116 1
	nop
	nop
	leave
	.cfi_restore 5
	.cfi_def_cfa 4, 4
	ret
	.cfi_endproc
LFE13:
	.section .rdata,"dr"
LC0:
	.ascii "0123456789abcdef\0"
	.text
	.globl	_convert
	.def	_convert;	.scl	2;	.type	32;	.endef
_convert:
LFB14:
	.loc 1 119 1
	.cfi_startproc
	pushl	%ebp
	.cfi_def_cfa_offset 8
	.cfi_offset 5, -8
	movl	%esp, %ebp
	.cfi_def_cfa_register 5
	subl	$16, %esp
	.loc 1 125 7
	movl	$_buff.2131+32, -4(%ebp)
	.loc 1 128 8
	movl	-4(%ebp), %eax
	movb	$0, (%eax)
L16:
	.loc 1 133 36 discriminator 1
	movl	12(%ebp), %ecx
	movl	8(%ebp), %eax
	movl	$0, %edx
	divl	%ecx
	movl	%edx, %eax
	.loc 1 133 12 discriminator 1
	subl	$1, -4(%ebp)
	.loc 1 133 32 discriminator 1
	movzbl	LC0(%eax), %edx
	.loc 1 133 12 discriminator 1
	movl	-4(%ebp), %eax
	movb	%dl, (%eax)
	.loc 1 136 9 discriminator 1
	movl	12(%ebp), %ecx
	movl	8(%ebp), %eax
	movl	$0, %edx
	divl	%ecx
	movl	%eax, 8(%ebp)
	.loc 1 137 3 discriminator 1
	cmpl	$0, 8(%ebp)
	jne	L16
	.loc 1 140 9
	movl	-4(%ebp), %eax
	.loc 1 141 1
	leave
	.cfi_restore 5
	.cfi_def_cfa 4, 4
	ret
	.cfi_endproc
LFE14:
.lcomm _buff.2131,33,32
Letext0:
	.file 2 "c:/mingw/include/stdio.h"
	.file 3 "c:/mingw/lib/gcc/mingw32/9.2.0/include/stdarg.h"