	.file	"binary_tree.c"
	.text
Ltext0:
	.comm	_Head, 4, 2
	.globl	_height
	.def	_height;	.scl	2;	.type	32;	.endef
_height:
LFB26:
	.file 1 "G:/My_SVN/Git/MyPrograms/Others/Completed/Binary_Tree/platform/Windows/../../code/Binary_Tree.c"
	.loc 1 4 1
	.cfi_startproc
	pushl	%ebp
	.cfi_def_cfa_offset 8
	.cfi_offset 5, -8
	movl	%esp, %ebp
	.cfi_def_cfa_register 5
	subl	$40, %esp
	.loc 1 6 10
	movl	$0, -16(%ebp)
	.loc 1 6 7
	movl	-16(%ebp), %eax
	movl	%eax, -12(%ebp)
	.loc 1 6 4
	movl	-12(%ebp), %eax
	movl	%eax, -20(%ebp)
	.loc 1 7 7
	movl	8(%ebp), %eax
	movl	4(%eax), %eax
	.loc 1 7 5
	testl	%eax, %eax
	je	L2
	.loc 1 8 19
	movl	8(%ebp), %eax
	movl	4(%eax), %eax
	.loc 1 8 11
	movl	%eax, (%esp)
	call	_height
	.loc 1 8 7
	addl	$1, %eax
	movl	%eax, -12(%ebp)
	jmp	L3
L2:
	.loc 1 9 12
	movl	8(%ebp), %eax
	movl	8(%eax), %eax
	.loc 1 9 10
	testl	%eax, %eax
	je	L3
	.loc 1 10 19
	movl	8(%ebp), %eax
	movl	8(%eax), %eax
	.loc 1 10 11
	movl	%eax, (%esp)
	call	_height
	.loc 1 10 7
	addl	$1, %eax
	movl	%eax, -16(%ebp)
L3:
	.loc 1 12 4
	movl	-12(%ebp), %edx
	movl	-16(%ebp), %eax
	cmpl	%edx, %eax
	jge	L4
	movl	%edx, %eax
L4:
	movl	%eax, -20(%ebp)
	.loc 1 13 9
	movl	-20(%ebp), %eax
	.loc 1 14 1
	leave
	.cfi_restore 5
	.cfi_def_cfa 4, 4
	ret
	.cfi_endproc
LFE26:
	.section .rdata,"dr"
LC0:
	.ascii "\12\12 Value exists !!!!!!!!!\0"
	.text
	.globl	_insert
	.def	_insert;	.scl	2;	.type	32;	.endef
_insert:
LFB27:
	.loc 1 16 1
	.cfi_startproc
	pushl	%ebp
	.cfi_def_cfa_offset 8
	.cfi_offset 5, -8
	movl	%esp, %ebp
	.cfi_def_cfa_register 5
	subl	$40, %esp
	movl	12(%ebp), %eax
	movb	%al, -12(%ebp)
	.loc 1 17 7
	movl	8(%ebp), %eax
	movl	(%eax), %eax
	.loc 1 17 5
	testl	%eax, %eax
	jne	L7
	.loc 1 19 18
	movl	$12, (%esp)
	call	_malloc
	movl	%eax, %edx
	.loc 1 19 9
	movl	8(%ebp), %eax
	movl	%edx, (%eax)
	.loc 1 20 6
	movl	8(%ebp), %eax
	movl	(%eax), %eax
	.loc 1 20 15
	movzbl	-12(%ebp), %edx
	movl	%edx, (%eax)
	.loc 1 21 6
	movl	8(%ebp), %eax
	movl	(%eax), %eax
	.loc 1 21 15
	movl	$0, 4(%eax)
	.loc 1 22 6
	movl	8(%ebp), %eax
	movl	(%eax), %eax
	.loc 1 22 16
	movl	$0, 8(%eax)
	jmp	L8
L7:
	.loc 1 26 9
	movl	8(%ebp), %eax
	movl	(%eax), %eax
	.loc 1 26 12
	movl	(%eax), %edx
	.loc 1 26 18
	movzbl	-12(%ebp), %eax
	.loc 1 26 7
	cmpl	%eax, %edx
	jbe	L9
	.loc 1 27 7
	movzbl	-12(%ebp), %eax
	.loc 1 27 16
	movl	8(%ebp), %edx
	movl	(%edx), %edx
	.loc 1 27 14
	addl	$4, %edx
	.loc 1 27 7
	movl	%eax, 4(%esp)
	movl	%edx, (%esp)
	call	_insert
	jmp	L8
L9:
	.loc 1 28 14
	movl	8(%ebp), %eax
	movl	(%eax), %eax
	.loc 1 28 17
	movl	(%eax), %edx
	.loc 1 28 23
	movzbl	-12(%ebp), %eax
	.loc 1 28 12
	cmpl	%eax, %edx
	jnb	L10
	.loc 1 29 7
	movzbl	-12(%ebp), %eax
	.loc 1 29 16
	movl	8(%ebp), %edx
	movl	(%edx), %edx
	.loc 1 29 14
	addl	$8, %edx
	.loc 1 29 7
	movl	%eax, 4(%esp)
	movl	%edx, (%esp)
	call	_insert
	jmp	L8
L10:
	.loc 1 32 7
	movl	$LC0, (%esp)
	call	_printf
	.loc 1 33 14
	movl	$0, %eax
	jmp	L11
L8:
	.loc 1 36 10
	movl	$1, %eax
L11:
	.loc 1 37 1
	leave
	.cfi_restore 5
	.cfi_def_cfa 4, 4
	ret
	.cfi_endproc
LFE27:
	.section .rdata,"dr"
LC1:
	.ascii "  %d\0"
	.text
	.globl	_pretrav
	.def	_pretrav;	.scl	2;	.type	32;	.endef
_pretrav:
LFB28:
	.loc 1 40 1
	.cfi_startproc
	pushl	%ebp
	.cfi_def_cfa_offset 8
	.cfi_offset 5, -8
	movl	%esp, %ebp
	.cfi_def_cfa_register 5
	subl	$24, %esp
	.loc 1 41 5
	cmpl	$0, 8(%ebp)
	je	L14
	.loc 1 43 5
	movl	8(%ebp), %eax
	movl	(%eax), %eax
	movl	%eax, 4(%esp)
	movl	$LC1, (%esp)
	call	_printf
	.loc 1 44 17
	movl	8(%ebp), %eax
	movl	4(%eax), %eax
	.loc 1 44 5
	movl	%eax, (%esp)
	call	_pretrav
	.loc 1 45 17
	movl	8(%ebp), %eax
	movl	8(%eax), %eax
	.loc 1 45 5
	movl	%eax, (%esp)
	call	_pretrav
L14:
	.loc 1 47 1
	nop
	leave
	.cfi_restore 5
	.cfi_def_cfa 4, 4
	ret
	.cfi_endproc
LFE28:
	.globl	_intrav
	.def	_intrav;	.scl	2;	.type	32;	.endef
_intrav:
LFB29:
	.loc 1 49 1
	.cfi_startproc
	pushl	%ebp
	.cfi_def_cfa_offset 8
	.cfi_offset 5, -8
	movl	%esp, %ebp
	.cfi_def_cfa_register 5
	subl	$24, %esp
	.loc 1 50 5
	cmpl	$0, 8(%ebp)
	je	L17
	.loc 1 52 16
	movl	8(%ebp), %eax
	movl	4(%eax), %eax
	.loc 1 52 5
	movl	%eax, (%esp)
	call	_intrav
	.loc 1 53 5
	movl	8(%ebp), %eax
	movl	(%eax), %eax
	movl	%eax, 4(%esp)
	movl	$LC1, (%esp)
	call	_printf
	.loc 1 54 16
	movl	8(%ebp), %eax
	movl	8(%eax), %eax
	.loc 1 54 5
	movl	%eax, (%esp)
	call	_intrav
L17:
	.loc 1 56 1
	nop
	leave
	.cfi_restore 5
	.cfi_def_cfa 4, 4
	ret
	.cfi_endproc
LFE29:
	.globl	_postrav
	.def	_postrav;	.scl	2;	.type	32;	.endef
_postrav:
LFB30:
	.loc 1 58 1
	.cfi_startproc
	pushl	%ebp
	.cfi_def_cfa_offset 8
	.cfi_offset 5, -8
	movl	%esp, %ebp
	.cfi_def_cfa_register 5
	subl	$24, %esp
	.loc 1 59 5
	cmpl	$0, 8(%ebp)
	je	L20
	.loc 1 61 17
	movl	8(%ebp), %eax
	movl	4(%eax), %eax
	.loc 1 61 5
	movl	%eax, (%esp)
	call	_postrav
	.loc 1 62 17
	movl	8(%ebp), %eax
	movl	8(%eax), %eax
	.loc 1 62 5
	movl	%eax, (%esp)
	call	_postrav
	.loc 1 63 5
	movl	8(%ebp), %eax
	movl	(%eax), %eax
	movl	%eax, 4(%esp)
	movl	$LC1, (%esp)
	call	_printf
L20:
	.loc 1 65 1
	nop
	leave
	.cfi_restore 5
	.cfi_def_cfa 4, 4
	ret
	.cfi_endproc
LFE30:
	.section .rdata,"dr"
LC2:
	.ascii "\12\12 Empty Node !!!!!!!!!!\0"
	.text
	.globl	_del
	.def	_del;	.scl	2;	.type	32;	.endef
_del:
LFB31:
	.loc 1 67 1
	.cfi_startproc
	pushl	%ebp
	.cfi_def_cfa_offset 8
	.cfi_offset 5, -8
	movl	%esp, %ebp
	.cfi_def_cfa_register 5
	subl	$40, %esp
	.loc 1 69 6
	movl	8(%ebp), %eax
	movl	(%eax), %eax
	.loc 1 69 5
	testl	%eax, %eax
	jne	L22
	.loc 1 71 5
	movl	$LC2, (%esp)
	call	_printf
	.loc 1 93 1
	jmp	L28
L22:
	.loc 1 73 12
	movl	8(%ebp), %eax
	movl	(%eax), %eax
	.loc 1 73 15
	movl	8(%eax), %eax
	.loc 1 73 10
	testl	%eax, %eax
	jne	L24
	.loc 1 75 6
	movl	8(%ebp), %eax
	movl	(%eax), %eax
	movl	%eax, -12(%ebp)
	.loc 1 76 9
	movl	8(%ebp), %eax
	movl	(%eax), %eax
	.loc 1 76 12
	movl	4(%eax), %edx
	.loc 1 76 7
	movl	8(%ebp), %eax
	movl	%edx, (%eax)
	movl	-12(%ebp), %eax
	movl	%eax, -16(%ebp)
LBB8:
LBB9:
	.file 2 "c:/mingw/include/stdlib.h"
	.loc 2 586 3
	movl	-16(%ebp), %eax
	movl	%eax, (%esp)
	call	___mingw_free
	.loc 2 586 1
	jmp	L23
L24:
LBE9:
LBE8:
	.loc 1 79 12
	movl	8(%ebp), %eax
	movl	(%eax), %eax
	.loc 1 79 15
	movl	4(%eax), %eax
	.loc 1 79 10
	testl	%eax, %eax
	jne	L25
	.loc 1 81 6
	movl	8(%ebp), %eax
	movl	(%eax), %eax
	movl	%eax, -12(%ebp)
	.loc 1 82 9
	movl	8(%ebp), %eax
	movl	(%eax), %eax
	.loc 1 82 12
	movl	8(%eax), %edx
	.loc 1 82 7
	movl	8(%ebp), %eax
	movl	%edx, (%eax)
	movl	-12(%ebp), %eax
	movl	%eax, -20(%ebp)
LBB10:
LBB11:
	.loc 2 586 3
	movl	-20(%ebp), %eax
	movl	%eax, (%esp)
	call	___mingw_free
	.loc 2 586 1
	jmp	L23
L25:
LBE11:
LBE10:
	.loc 1 87 12
	movl	8(%ebp), %eax
	movl	(%eax), %eax
	.loc 1 87 10
	movl	8(%eax), %eax
	movl	%eax, -12(%ebp)
	.loc 1 87 5
	jmp	L26
L27:
	.loc 1 87 32 discriminator 3
	movl	-12(%ebp), %eax
	movl	4(%eax), %eax
	movl	%eax, -12(%ebp)
L26:
	.loc 1 87 24 discriminator 1
	movl	-12(%ebp), %eax
	movl	4(%eax), %eax
	.loc 1 87 5 discriminator 1
	testl	%eax, %eax
	jne	L27
	.loc 1 88 14
	movl	8(%ebp), %eax
	movl	(%eax), %eax
	.loc 1 88 17
	movl	4(%eax), %edx
	.loc 1 88 12
	movl	-12(%ebp), %eax
	movl	%edx, 4(%eax)
	.loc 1 89 6
	movl	8(%ebp), %eax
	movl	(%eax), %eax
	movl	%eax, -12(%ebp)
	.loc 1 90 9
	movl	8(%ebp), %eax
	movl	(%eax), %eax
	.loc 1 90 12
	movl	8(%eax), %edx
	.loc 1 90 7
	movl	8(%ebp), %eax
	movl	%edx, (%eax)
	movl	-12(%ebp), %eax
	movl	%eax, -24(%ebp)
LBB12:
LBB13:
	.loc 2 586 3
	movl	-24(%ebp), %eax
	movl	%eax, (%esp)
	call	___mingw_free
	.loc 2 586 1
	nop
L23:
L28:
LBE13:
LBE12:
	.loc 1 93 1
	nop
	leave
	.cfi_restore 5
	.cfi_def_cfa 4, 4
	ret
	.cfi_endproc
LFE31:
Letext0:
	.file 3 "g:/my_svn/git/myprograms/others/completed/binary_tree/code/Typedef.h"
	.file 4 "c:/mingw/include/stdio.h"
	.file 5 "g:/my_svn/git/myprograms/others/completed/binary_tree/code/Binary_Tree.H"