	.file	"Prg29.c"
	.text
Ltext0:
	.section .rdata,"dr"
LC0:
	.ascii "Matrix: \0"
LC1:
	.ascii "%d  \0"
	.text
	.globl	_Prg29
	.def	_Prg29;	.scl	2;	.type	32;	.endef
_Prg29:
LFB7:
	.file 1 "/cygdrive/f/My_SVN/Google_Drive/Official/Others/Programs/Others/In_Progress/C_Programs_List/platform/Linux/../../code/Prg29.c"
	.loc 1 13 0
	.cfi_startproc
	pushl	%ebp
	.cfi_def_cfa_offset 8
	.cfi_offset 5, -8
	movl	%esp, %ebp
	.cfi_def_cfa_register 5
	subl	$72, %esp
	.loc 1 15 0
	movl	$0, -52(%ebp)
	movl	$1, -48(%ebp)
	movl	$2, -44(%ebp)
	movl	$3, -40(%ebp)
	movl	$4, -36(%ebp)
	movl	$5, -32(%ebp)
	movl	$6, -28(%ebp)
	movl	$7, -24(%ebp)
	movl	$8, -20(%ebp)
	.loc 1 21 0
	movl	$LC0, (%esp)
	call	_puts
	.loc 1 23 0
	movl	$0, -12(%ebp)
	jmp	L2
L5:
	.loc 1 25 0
	movl	$0, -16(%ebp)
	jmp	L3
L4:
	.loc 1 27 0 discriminator 2
	movl	-12(%ebp), %edx
	movl	%edx, %eax
	addl	%eax, %eax
	addl	%edx, %eax
	movl	-16(%ebp), %edx
	addl	%edx, %eax
	movl	-52(%ebp,%eax,4), %eax
	movl	%eax, 4(%esp)
	movl	$LC1, (%esp)
	call	_printf
	.loc 1 25 0 discriminator 2
	addl	$1, -16(%ebp)
L3:
	.loc 1 25 0 is_stmt 0 discriminator 1
	cmpl	$2, -16(%ebp)
	jle	L4
	.loc 1 29 0 is_stmt 1
	movl	$10, (%esp)
	call	_putchar
	.loc 1 23 0
	addl	$1, -12(%ebp)
L2:
	.loc 1 23 0 is_stmt 0 discriminator 1
	cmpl	$2, -12(%ebp)
	jle	L5
	.loc 1 32 0 is_stmt 1
	leave
	.cfi_restore 5
	.cfi_def_cfa 4, 4
	ret
	.cfi_endproc
LFE7:
Letext0: