	.file	"Prg23.c"
	.text
Ltext0:
	.section .rdata,"dr"
LC1:
	.ascii "Series: \0"
LC3:
	.ascii "(1/%f) + \0"
LC4:
	.ascii "sum: %f\12\0"
	.text
	.globl	_Prg23
	.def	_Prg23;	.scl	2;	.type	32;	.endef
_Prg23:
LFB7:
	.file 1 "/cygdrive/f/My_SVN/Google_Drive/Official/Others/Programs/Others/In_Progress/C_Programs_List/platform/Linux/../../code/Prg23.c"
	.loc 1 7 0
	.cfi_startproc
	pushl	%ebp
	.cfi_def_cfa_offset 8
	.cfi_offset 5, -8
	movl	%esp, %ebp
	.cfi_def_cfa_register 5
	subl	$40, %esp
	.loc 1 11 0
	movl	LC0, %eax
	movl	%eax, -12(%ebp)
	.loc 1 12 0
	movl	$10, -20(%ebp)
	.loc 1 14 0
	movl	$LC1, (%esp)
	call	_puts
	.loc 1 15 0
	movl	LC2, %eax
	movl	%eax, -16(%ebp)
	jmp	L2
L3:
	.loc 1 17 0 discriminator 2
	flds	-16(%ebp)
	fstpl	4(%esp)
	movl	$LC3, (%esp)
	call	_printf
	.loc 1 18 0 discriminator 2
	fld1
	fdivs	-16(%ebp)
	flds	-12(%ebp)
	faddp	%st, %st(1)
	fstps	-12(%ebp)
	.loc 1 15 0 discriminator 2
	flds	-16(%ebp)
	fld1
	faddp	%st, %st(1)
	fstps	-16(%ebp)
L2:
	.loc 1 15 0 is_stmt 0 discriminator 1
	fildl	-20(%ebp)
	flds	-16(%ebp)
	fxch	%st(1)
	fucomip	%st(1), %st
	fstp	%st(0)
	jae	L3
	.loc 1 21 0 is_stmt 1
	movl	$10, (%esp)
	call	_putchar
	.loc 1 22 0
	flds	-12(%ebp)
	fstpl	4(%esp)
	movl	$LC4, (%esp)
	call	_printf
	.loc 1 23 0
	leave
	.cfi_restore 5
	.cfi_def_cfa 4, 4
	ret
	.cfi_endproc
LFE7:
	.section .rdata,"dr"
	.align 4
LC0:
	.long	0
	.align 4
LC2:
	.long	1065353216
	.text
Letext0: