	.file	"Prg46.c"
	.text
Ltext0:
	.comm	_arr, 1000, 5
	.section .rdata,"dr"
LC0:
	.ascii "%d\12\0"
LC1:
	.ascii "Mom ?\0"
LC2:
	.ascii "Is \0"
LC3:
	.ascii "How \0"
	.text
	.globl	_Prg46
	.def	_Prg46;	.scl	2;	.type	32;	.endef
_Prg46:
LFB7:
	.file 1 "/cygdrive/f/My_SVN/Google_Drive/Official/Others/Programs/Others/In_Progress/C_Programs_List/platform/Linux/../../code/Prg46.c"
	.loc 1 14 0
	.cfi_startproc
	pushl	%ebp
	.cfi_def_cfa_offset 8
	.cfi_offset 5, -8
	movl	%esp, %ebp
	.cfi_def_cfa_register 5
	subl	$56, %esp
	.loc 1 15 0
	movl	$10, 40(%esp)
	movl	$9, 36(%esp)
	movl	$8, 32(%esp)
	movl	$7, 28(%esp)
	movl	$6, 24(%esp)
	movl	$5, 20(%esp)
	movl	$4, 16(%esp)
	movl	$3, 12(%esp)
	movl	$2, 8(%esp)
	movl	$1, 4(%esp)
	movl	$10, (%esp)
	call	_Variadic_Sum
	movl	%eax, 4(%esp)
	movl	$LC0, (%esp)
	call	_printf
	.loc 1 17 0
	movl	$LC1, 12(%esp)
	movl	$LC2, 8(%esp)
	movl	$LC3, 4(%esp)
	movl	$3, (%esp)
	call	_Variadic_Concat
	movl	%eax, (%esp)
	call	_puts
	.loc 1 18 0
	leave
	.cfi_restore 5
	.cfi_def_cfa 4, 4
	ret
	.cfi_endproc
LFE7:
	.globl	_Variadic_Sum
	.def	_Variadic_Sum;	.scl	2;	.type	32;	.endef
_Variadic_Sum:
LFB8:
	.loc 1 23 0
	.cfi_startproc
	pushl	%ebp
	.cfi_def_cfa_offset 8
	.cfi_offset 5, -8
	movl	%esp, %ebp
	.cfi_def_cfa_register 5
	subl	$16, %esp
	.loc 1 28 0
	leal	12(%ebp), %eax
	movl	%eax, -12(%ebp)
	.loc 1 30 0
	movl	$0, -8(%ebp)
	.loc 1 32 0
	movl	$0, -4(%ebp)
	jmp	L3
L4:
	.loc 1 35 0 discriminator 2
	movl	-12(%ebp), %eax
	leal	4(%eax), %edx
	movl	%edx, -12(%ebp)
	movl	(%eax), %eax
	addl	%eax, -8(%ebp)
	.loc 1 32 0 discriminator 2
	addl	$1, -4(%ebp)
L3:
	.loc 1 32 0 is_stmt 0 discriminator 1
	movl	-4(%ebp), %eax
	cmpl	8(%ebp), %eax
	jl	L4
	.loc 1 41 0 is_stmt 1
	movl	-8(%ebp), %eax
	.loc 1 42 0
	leave
	.cfi_restore 5
	.cfi_def_cfa 4, 4
	ret
	.cfi_endproc
LFE8:
	.globl	_Variadic_Concat
	.def	_Variadic_Concat;	.scl	2;	.type	32;	.endef
_Variadic_Concat:
LFB9:
	.loc 1 46 0
	.cfi_startproc
	pushl	%ebp
	.cfi_def_cfa_offset 8
	.cfi_offset 5, -8
	movl	%esp, %ebp
	.cfi_def_cfa_register 5
	subl	$40, %esp
	.loc 1 49 0
	movl	$_arr, -16(%ebp)
	.loc 1 52 0
	leal	12(%ebp), %eax
	movl	%eax, -20(%ebp)
	.loc 1 54 0
	movl	$0, -12(%ebp)
	jmp	L7
L8:
	.loc 1 57 0 discriminator 2
	movl	-20(%ebp), %eax
	leal	4(%eax), %edx
	movl	%edx, -20(%ebp)
	movl	(%eax), %eax
	movl	%eax, 4(%esp)
	movl	-16(%ebp), %eax
	movl	%eax, (%esp)
	call	_strcat
	.loc 1 54 0 discriminator 2
	addl	$1, -12(%ebp)
L7:
	.loc 1 54 0 is_stmt 0 discriminator 1
	movl	-12(%ebp), %eax
	cmpl	8(%ebp), %eax
	jl	L8
	.loc 1 60 0 is_stmt 1
	movl	$_arr, %eax
	.loc 1 61 0
	leave
	.cfi_restore 5
	.cfi_def_cfa 4, 4
	ret
	.cfi_endproc
LFE9:
Letext0:
	.file 2 "/usr/lib/gcc/i686-pc-cygwin/4.8.3/include/stdarg.h"