	.file	"prg32.c"
	.text
Ltext0:
	.section .rdata,"dr"
LC0:
	.ascii "%d  \0"
	.text
	.globl	_Prg32
	.def	_Prg32;	.scl	2;	.type	32;	.endef
_Prg32:
LFB13:
	.file 1 "G:/My_SVN/Git/MyPrograms/Others/In_Progress/C_Programs_List/platform/Windows/../../code/Prg32.c"
	.loc 1 19 1
	.cfi_startproc
	pushl	%ebp
	.cfi_def_cfa_offset 8
	.cfi_offset 5, -8
	movl	%esp, %ebp
	.cfi_def_cfa_register 5
	subl	$152, %esp
	.loc 1 21 7
	movl	$1, -52(%ebp)
	movl	$1, -48(%ebp)
	movl	$1, -44(%ebp)
	movl	$1, -40(%ebp)
	movl	$1, -36(%ebp)
	movl	$1, -32(%ebp)
	movl	$1, -28(%ebp)
	movl	$1, -24(%ebp)
	movl	$1, -20(%ebp)
	.loc 1 27 7
	movl	$1, -88(%ebp)
	movl	$1, -84(%ebp)
	movl	$1, -80(%ebp)
	movl	$1, -76(%ebp)
	movl	$1, -72(%ebp)
	movl	$1, -68(%ebp)
	movl	$1, -64(%ebp)
	movl	$1, -60(%ebp)
	movl	$1, -56(%ebp)
	.loc 1 33 7
	movl	$1, -124(%ebp)
	movl	$1, -120(%ebp)
	movl	$1, -116(%ebp)
	movl	$1, -112(%ebp)
	movl	$1, -108(%ebp)
	movl	$1, -104(%ebp)
	movl	$1, -100(%ebp)
	movl	$1, -96(%ebp)
	movl	$1, -92(%ebp)
	.loc 1 39 8
	movl	$0, -12(%ebp)
	.loc 1 39 3
	jmp	L2
L5:
	.loc 1 41 10
	movl	$0, -16(%ebp)
	.loc 1 41 5
	jmp	L3
L4:
	.loc 1 43 32 discriminator 3
	movl	-12(%ebp), %edx
	movl	%edx, %eax
	addl	%eax, %eax
	addl	%edx, %eax
	sall	$2, %eax
	leal	-8(%ebp), %ecx
	addl	%ecx, %eax
	subl	$44, %eax
	movl	(%eax), %edx
	.loc 1 43 47 discriminator 3
	movl	-16(%ebp), %eax
	movl	-88(%ebp,%eax,4), %eax
	.loc 1 43 36 discriminator 3
	movl	%edx, %ecx
	imull	%eax, %ecx
	.loc 1 43 64 discriminator 3
	movl	-12(%ebp), %edx
	movl	%edx, %eax
	addl	%eax, %eax
	addl	%edx, %eax
	sall	$2, %eax
	leal	-8(%ebp), %edx
	addl	%edx, %eax
	subl	$40, %eax
	movl	(%eax), %edx
	.loc 1 43 79 discriminator 3
	movl	-16(%ebp), %eax
	addl	$3, %eax
	movl	-88(%ebp,%eax,4), %eax
	.loc 1 43 68 discriminator 3
	imull	%edx, %eax
	.loc 1 43 52 discriminator 3
	addl	%eax, %ecx
	.loc 1 43 96 discriminator 3
	movl	-12(%ebp), %edx
	movl	%edx, %eax
	addl	%eax, %eax
	addl	%edx, %eax
	sall	$2, %eax
	leal	-8(%ebp), %edx
	addl	%edx, %eax
	subl	$36, %eax
	movl	(%eax), %edx
	.loc 1 43 111 discriminator 3
	movl	-16(%ebp), %eax
	addl	$6, %eax
	movl	-88(%ebp,%eax,4), %eax
	.loc 1 43 100 discriminator 3
	imull	%edx, %eax
	.loc 1 43 84 discriminator 3
	addl	%eax, %ecx
	.loc 1 43 20 discriminator 3
	movl	-12(%ebp), %edx
	movl	%edx, %eax
	addl	%eax, %eax
	addl	%edx, %eax
	movl	-16(%ebp), %edx
	addl	%edx, %eax
	movl	%ecx, -124(%ebp,%eax,4)
	.loc 1 41 20 discriminator 3
	addl	$1, -16(%ebp)
L3:
	.loc 1 41 5 discriminator 1
	cmpl	$2, -16(%ebp)
	jle	L4
	.loc 1 39 18 discriminator 2
	addl	$1, -12(%ebp)
L2:
	.loc 1 39 3 discriminator 1
	cmpl	$2, -12(%ebp)
	jle	L5
	.loc 1 47 8
	movl	$0, -12(%ebp)
	.loc 1 47 3
	jmp	L6
L9:
	.loc 1 49 10
	movl	$0, -16(%ebp)
	.loc 1 49 5
	jmp	L7
L8:
	.loc 1 51 7 discriminator 3
	movl	-12(%ebp), %edx
	movl	%edx, %eax
	addl	%eax, %eax
	addl	%edx, %eax
	movl	-16(%ebp), %edx
	addl	%edx, %eax
	movl	-124(%ebp,%eax,4), %eax
	movl	%eax, 4(%esp)
	movl	$LC0, (%esp)
	call	_printf
	.loc 1 49 20 discriminator 3
	addl	$1, -16(%ebp)
L7:
	.loc 1 49 5 discriminator 1
	cmpl	$2, -16(%ebp)
	jle	L8
	.loc 1 53 5 discriminator 2
	movl	$10, (%esp)
	call	_putchar
	.loc 1 47 18 discriminator 2
	addl	$1, -12(%ebp)
L6:
	.loc 1 47 3 discriminator 1
	cmpl	$2, -12(%ebp)
	jle	L9
	.loc 1 55 1
	nop
	nop
	leave
	.cfi_restore 5
	.cfi_def_cfa 4, 4
	ret
	.cfi_endproc
LFE13:
Letext0:
	.file 2 "c:/mingw/include/stdio.h"