	.file	"prg4.c"
	.text
Ltext0:
	.section .rdata,"dr"
LC1:
	.ascii "percent = %f \12\0"
	.text
	.globl	_Prg4
	.def	_Prg4;	.scl	2;	.type	32;	.endef
_Prg4:
LFB13:
	.file 1 "G:/My_SVN/Git/MyPrograms/Others/In_Progress/C_Programs_List/platform/Windows/../../code/Prg4.c"
	.loc 1 7 1
	.cfi_startproc
	pushl	%ebp
	.cfi_def_cfa_offset 8
	.cfi_offset 5, -8
	movl	%esp, %ebp
	.cfi_def_cfa_register 5
	subl	$104, %esp
	.loc 1 8 7
	movl	$50, -44(%ebp)
	movl	$50, -40(%ebp)
	movl	$50, -36(%ebp)
	movl	$50, -32(%ebp)
	movl	$50, -28(%ebp)
	.loc 1 9 7
	movl	$100, -64(%ebp)
	movl	$100, -60(%ebp)
	movl	$100, -56(%ebp)
	movl	$100, -52(%ebp)
	movl	$100, -48(%ebp)
	.loc 1 10 7
	movl	$0, -12(%ebp)
	.loc 1 12 9
	fldz
	fstps	-24(%ebp)
	.loc 1 13 7
	movl	$0, -16(%ebp)
	.loc 1 14 7
	movl	$0, -20(%ebp)
	.loc 1 16 10
	movl	$0, -12(%ebp)
	.loc 1 16 3
	jmp	L2
L3:
	.loc 1 18 22 discriminator 3
	movl	-12(%ebp), %eax
	movl	-44(%ebp,%eax,4), %eax
	.loc 1 18 9 discriminator 3
	addl	%eax, -16(%ebp)
	.loc 1 19 32 discriminator 3
	movl	-12(%ebp), %eax
	movl	-64(%ebp,%eax,4), %eax
	.loc 1 19 11 discriminator 3
	addl	%eax, -20(%ebp)
	.loc 1 16 23 discriminator 3
	addl	$1, -12(%ebp)
L2:
	.loc 1 16 3 discriminator 1
	cmpl	$4, -12(%ebp)
	jle	L3
	.loc 1 22 18
	movl	-16(%ebp), %eax
	cltd
	idivl	-20(%ebp)
	.loc 1 22 27
	imull	$100, %eax, %eax
	.loc 1 22 11
	movl	%eax, -76(%ebp)
	fildl	-76(%ebp)
	fstps	-24(%ebp)
	.loc 1 24 3
	flds	-24(%ebp)
	fstpl	4(%esp)
	movl	$LC1, (%esp)
	call	_printf
	.loc 1 25 1
	nop
	leave
	.cfi_restore 5
	.cfi_def_cfa 4, 4
	ret
	.cfi_endproc
LFE13:
Letext0:
	.file 2 "c:/mingw/include/stdio.h"