	.file	"checkerboard_test_algorithm.c"
	.text
Ltext0:
	.comm	_TestArray, 40, 5
	.globl	_Checkerboard_Test_Algorithm
	.def	_Checkerboard_Test_Algorithm;	.scl	2;	.type	32;	.endef
_Checkerboard_Test_Algorithm:
LFB13:
	.file 1 "G:/My_SVN/Git/MyPrograms/Others/Completed/RamTst_Algorithms/platform/Windows/../../code/Checkerboard_Test_Algorithm.c"
	.loc 1 4 1
	.cfi_startproc
	pushl	%ebp
	.cfi_def_cfa_offset 8
	.cfi_offset 5, -8
	movl	%esp, %ebp
	.cfi_def_cfa_register 5
	subl	$16, %esp
	.loc 1 11 16
	movl	$_TestArray, -12(%ebp)
	.loc 1 12 16
	movb	$1, -5(%ebp)
	.loc 1 14 16
	movb	$0, -1(%ebp)
	.loc 1 14 26
	movw	$1, -4(%ebp)
	.loc 1 14 5
	jmp	L2
L3:
	.loc 1 16 19 discriminator 3
	movzbl	-1(%ebp), %eax
	leal	0(,%eax,4), %edx
	movl	-12(%ebp), %eax
	addl	%edx, %eax
	.loc 1 16 28 discriminator 3
	movl	$1431655765, (%eax)
	.loc 1 17 19 discriminator 3
	movzwl	-4(%ebp), %eax
	leal	0(,%eax,4), %edx
	movl	-12(%ebp), %eax
	addl	%edx, %eax
	.loc 1 17 28 discriminator 3
	movl	$-1431655766, (%eax)
	.loc 1 14 47 discriminator 3
	addb	$2, -1(%ebp)
	.loc 1 14 58 discriminator 3
	addw	$2, -4(%ebp)
L2:
	.loc 1 14 5 discriminator 1
	cmpb	$9, -1(%ebp)
	jbe	L3
	.loc 1 20 16
	movb	$0, -1(%ebp)
	.loc 1 20 26
	movw	$1, -4(%ebp)
	.loc 1 20 5
	jmp	L4
L7:
	.loc 1 22 30
	movzbl	-1(%ebp), %eax
	leal	0(,%eax,4), %edx
	movl	-12(%ebp), %eax
	addl	%edx, %eax
	.loc 1 22 18
	movl	(%eax), %eax
	movl	%eax, -16(%ebp)
	.loc 1 23 12
	cmpl	$1431655765, -16(%ebp)
	je	L5
	.loc 1 25 24
	movb	$0, -5(%ebp)
L5:
	.loc 1 28 30
	movzwl	-4(%ebp), %eax
	leal	0(,%eax,4), %edx
	movl	-12(%ebp), %eax
	addl	%edx, %eax
	.loc 1 28 18
	movl	(%eax), %eax
	movl	%eax, -16(%ebp)
	.loc 1 29 12
	cmpl	$-1431655766, -16(%ebp)
	je	L6
	.loc 1 31 24
	movb	$0, -5(%ebp)
L6:
	.loc 1 34 19 discriminator 2
	movzbl	-1(%ebp), %eax
	leal	0(,%eax,4), %edx
	movl	-12(%ebp), %eax
	addl	%edx, %eax
	.loc 1 34 28 discriminator 2
	movl	$-1431655766, (%eax)
	.loc 1 35 19 discriminator 2
	movzwl	-4(%ebp), %eax
	leal	0(,%eax,4), %edx
	movl	-12(%ebp), %eax
	addl	%edx, %eax
	.loc 1 35 28 discriminator 2
	movl	$1431655765, (%eax)
	.loc 1 20 47 discriminator 2
	addb	$2, -1(%ebp)
	.loc 1 20 58 discriminator 2
	addw	$2, -4(%ebp)
L4:
	.loc 1 20 5 discriminator 1
	cmpb	$9, -1(%ebp)
	jbe	L7
	.loc 1 38 16
	movb	$0, -1(%ebp)
	.loc 1 38 26
	movw	$1, -4(%ebp)
	.loc 1 38 5
	jmp	L8
L11:
	.loc 1 40 30
	movzbl	-1(%ebp), %eax
	leal	0(,%eax,4), %edx
	movl	-12(%ebp), %eax
	addl	%edx, %eax
	.loc 1 40 18
	movl	(%eax), %eax
	movl	%eax, -16(%ebp)
	.loc 1 41 12
	cmpl	$-1431655766, -16(%ebp)
	je	L9
	.loc 1 43 24
	movb	$0, -5(%ebp)
L9:
	.loc 1 46 30
	movzwl	-4(%ebp), %eax
	leal	0(,%eax,4), %edx
	movl	-12(%ebp), %eax
	addl	%edx, %eax
	.loc 1 46 18
	movl	(%eax), %eax
	movl	%eax, -16(%ebp)
	.loc 1 47 12
	cmpl	$1431655765, -16(%ebp)
	je	L10
	.loc 1 49 24
	movb	$0, -5(%ebp)
L10:
	.loc 1 38 47 discriminator 2
	addb	$2, -1(%ebp)
	.loc 1 38 58 discriminator 2
	addw	$2, -4(%ebp)
L8:
	.loc 1 38 5 discriminator 1
	cmpb	$9, -1(%ebp)
	jbe	L11
	.loc 1 53 12
	movzbl	-5(%ebp), %eax
	.loc 1 54 1
	leave
	.cfi_restore 5
	.cfi_def_cfa 4, 4
	ret
	.cfi_endproc
LFE13:
Letext0:
	.file 2 "c:/mingw/include/stdio.h"
	.file 3 "g:/my_svn/git/myprograms/others/completed/ramtst_algorithms/code/Typedef.h"
	.file 4 "g:/my_svn/git/myprograms/others/completed/ramtst_algorithms/code/Checkerboard_Test_Algorithm.h"