	.file	"galpat_test_algorithm.c"
	.text
Ltext0:
	.comm	_TestArray, 40, 5
	.globl	_GalpatTest_Pattern_PC
	.data
	.align 4
_GalpatTest_Pattern_PC:
	.long	0
	.long	65535
	.long	16711935
	.long	252645135
	.long	858993459
	.long	1431655765
	.globl	_GalpatTest_i_Pattern_PC
	.align 4
_GalpatTest_i_Pattern_PC:
	.long	-1
	.long	-65536
	.long	-16711936
	.long	-252645136
	.long	-858993460
	.long	-1431655766
	.text
	.globl	_Galpat_Test_Algorithm
	.def	_Galpat_Test_Algorithm;	.scl	2;	.type	32;	.endef
_Galpat_Test_Algorithm:
LFB13:
	.file 1 "G:/My_SVN/Git/MyPrograms/Others/Completed/RamTst_Algorithms/platform/Windows/../../code/Galpat_Test_Algorithm.c"
	.loc 1 4 1
	.cfi_startproc
	pushl	%ebp
	.cfi_def_cfa_offset 8
	.cfi_offset 5, -8
	movl	%esp, %ebp
	.cfi_def_cfa_register 5
	subl	$16, %esp
	.loc 1 10 16
	movb	$1, -5(%ebp)
	.loc 1 11 16
	movl	$_TestArray, -12(%ebp)
	.loc 1 14 16
	movb	$0, -1(%ebp)
	.loc 1 14 5
	jmp	L2
L15:
	.loc 1 18 20
	movw	$0, -4(%ebp)
	.loc 1 18 9
	jmp	L3
L4:
	.loc 1 20 55 discriminator 3
	movzbl	-1(%ebp), %eax
	.loc 1 20 23 discriminator 3
	movzwl	-4(%ebp), %edx
	leal	0(,%edx,4), %ecx
	movl	-12(%ebp), %edx
	addl	%ecx, %edx
	.loc 1 20 55 discriminator 3
	movl	_GalpatTest_Pattern_PC(,%eax,4), %eax
	.loc 1 20 32 discriminator 3
	movl	%eax, (%edx)
	.loc 1 18 41 discriminator 3
	movzwl	-4(%ebp), %eax
	addl	$1, %eax
	movw	%ax, -4(%ebp)
L3:
	.loc 1 18 9 discriminator 1
	cmpw	$9, -4(%ebp)
	jbe	L4
	.loc 1 23 20
	movw	$0, -4(%ebp)
	.loc 1 23 9
	jmp	L5
L8:
	.loc 1 25 57
	movzbl	-1(%ebp), %eax
	.loc 1 25 23
	movzwl	-4(%ebp), %edx
	leal	0(,%edx,4), %ecx
	movl	-12(%ebp), %edx
	addl	%ecx, %edx
	.loc 1 25 57
	movl	_GalpatTest_i_Pattern_PC(,%eax,4), %eax
	.loc 1 25 32
	movl	%eax, (%edx)
	.loc 1 26 27
	movzwl	-4(%ebp), %eax
	leal	0(,%eax,4), %edx
	movl	-12(%ebp), %eax
	addl	%edx, %eax
	movl	(%eax), %edx
	.loc 1 26 62
	movzbl	-1(%ebp), %eax
	movl	_GalpatTest_i_Pattern_PC(,%eax,4), %eax
	.loc 1 26 16
	cmpl	%eax, %edx
	je	L6
	.loc 1 28 28
	movb	$0, -5(%ebp)
	jmp	L7
L6:
	.loc 1 32 59
	movzbl	-1(%ebp), %eax
	.loc 1 32 27
	movzwl	-4(%ebp), %edx
	leal	0(,%edx,4), %ecx
	movl	-12(%ebp), %edx
	addl	%ecx, %edx
	.loc 1 32 59
	movl	_GalpatTest_Pattern_PC(,%eax,4), %eax
	.loc 1 32 36
	movl	%eax, (%edx)
L7:
	.loc 1 23 41 discriminator 2
	movzwl	-4(%ebp), %eax
	addl	$1, %eax
	movw	%ax, -4(%ebp)
L5:
	.loc 1 23 9 discriminator 1
	cmpw	$9, -4(%ebp)
	jbe	L8
	.loc 1 38 20
	movw	$0, -4(%ebp)
	.loc 1 38 9
	jmp	L9
L10:
	.loc 1 40 57 discriminator 3
	movzbl	-1(%ebp), %eax
	.loc 1 40 23 discriminator 3
	movzwl	-4(%ebp), %edx
	leal	0(,%edx,4), %ecx
	movl	-12(%ebp), %edx
	addl	%ecx, %edx
	.loc 1 40 57 discriminator 3
	movl	_GalpatTest_i_Pattern_PC(,%eax,4), %eax
	.loc 1 40 32 discriminator 3
	movl	%eax, (%edx)
	.loc 1 38 41 discriminator 3
	movzwl	-4(%ebp), %eax
	addl	$1, %eax
	movw	%ax, -4(%ebp)
L9:
	.loc 1 38 9 discriminator 1
	cmpw	$9, -4(%ebp)
	jbe	L10
	.loc 1 43 20
	movw	$0, -4(%ebp)
	.loc 1 43 9
	jmp	L11
L14:
	.loc 1 45 55
	movzbl	-1(%ebp), %eax
	.loc 1 45 23
	movzwl	-4(%ebp), %edx
	leal	0(,%edx,4), %ecx
	movl	-12(%ebp), %edx
	addl	%ecx, %edx
	.loc 1 45 55
	movl	_GalpatTest_Pattern_PC(,%eax,4), %eax
	.loc 1 45 32
	movl	%eax, (%edx)
	.loc 1 46 27
	movzwl	-4(%ebp), %eax
	leal	0(,%eax,4), %edx
	movl	-12(%ebp), %eax
	addl	%edx, %eax
	movl	(%eax), %edx
	.loc 1 46 60
	movzbl	-1(%ebp), %eax
	movl	_GalpatTest_Pattern_PC(,%eax,4), %eax
	.loc 1 46 16
	cmpl	%eax, %edx
	je	L12
	.loc 1 48 28
	movb	$0, -5(%ebp)
	jmp	L13
L12:
	.loc 1 52 61
	movzbl	-1(%ebp), %eax
	.loc 1 52 27
	movzwl	-4(%ebp), %edx
	leal	0(,%edx,4), %ecx
	movl	-12(%ebp), %edx
	addl	%ecx, %edx
	.loc 1 52 61
	movl	_GalpatTest_i_Pattern_PC(,%eax,4), %eax
	.loc 1 52 36
	movl	%eax, (%edx)
L13:
	.loc 1 43 41 discriminator 2
	movzwl	-4(%ebp), %eax
	addl	$1, %eax
	movw	%ax, -4(%ebp)
L11:
	.loc 1 43 9 discriminator 1
	cmpw	$9, -4(%ebp)
	jbe	L14
	.loc 1 14 36 discriminator 2
	movzbl	-1(%ebp), %eax
	addl	$1, %eax
	movb	%al, -1(%ebp)
L2:
	.loc 1 14 5 discriminator 1
	cmpb	$5, -1(%ebp)
	jbe	L15
	.loc 1 57 12
	movzbl	-5(%ebp), %eax
	.loc 1 58 1
	leave
	.cfi_restore 5
	.cfi_def_cfa 4, 4
	ret
	.cfi_endproc
LFE13:
Letext0:
	.file 2 "c:/mingw/include/stdio.h"
	.file 3 "g:/my_svn/git/myprograms/others/completed/ramtst_algorithms/code/Typedef.h"
	.file 4 "g:/my_svn/git/myprograms/others/completed/ramtst_algorithms/code/Galpat_Test_Algorithm.h"