	.file	"march_test_algorithm.c"
	.text
Ltext0:
	.comm	_TestArray, 40, 5
	.globl	_MarchTest_Pattern_PC
	.data
	.align 4
_MarchTest_Pattern_PC:
	.long	0
	.long	65535
	.long	16711935
	.long	252645135
	.long	858993459
	.long	1431655765
	.globl	_MarchTest_i_Pattern_PC
	.align 4
_MarchTest_i_Pattern_PC:
	.long	-1
	.long	-65536
	.long	-16711936
	.long	-252645136
	.long	-858993460
	.long	-1431655766
	.text
	.globl	_March_Test_Algorithm
	.def	_March_Test_Algorithm;	.scl	2;	.type	32;	.endef
_March_Test_Algorithm:
LFB13:
	.file 1 "G:/My_SVN/Git/MyPrograms/Others/Completed/RamTst_Algorithms/platform/Windows/../../code/March_Test_Algorithm.c"
	.loc 1 5 1
	.cfi_startproc
	pushl	%ebp
	.cfi_def_cfa_offset 8
	.cfi_offset 5, -8
	movl	%esp, %ebp
	.cfi_def_cfa_register 5
	subl	$16, %esp
	.loc 1 11 16
	movb	$1, -9(%ebp)
	.loc 1 12 17
	movl	$_TestArray, -16(%ebp)
	.loc 1 15 17
	movl	$0, -4(%ebp)
	.loc 1 15 5
	jmp	L2
L27:
	.loc 1 19 21
	movl	$0, -8(%ebp)
	.loc 1 19 9
	jmp	L3
L4:
	.loc 1 21 24 discriminator 3
	movl	-8(%ebp), %eax
	leal	0(,%eax,4), %edx
	movl	-16(%ebp), %eax
	addl	%eax, %edx
	.loc 1 21 55 discriminator 3
	movl	-4(%ebp), %eax
	movl	_MarchTest_Pattern_PC(,%eax,4), %eax
	.loc 1 21 33 discriminator 3
	movl	%eax, (%edx)
	.loc 1 19 45 discriminator 3
	addl	$1, -8(%ebp)
L3:
	.loc 1 19 9 discriminator 1
	cmpl	$9, -8(%ebp)
	jle	L4
	.loc 1 26 21
	movl	$0, -8(%ebp)
	.loc 1 26 9
	jmp	L5
L9:
	.loc 1 29 28
	movl	-8(%ebp), %eax
	leal	0(,%eax,4), %edx
	movl	-16(%ebp), %eax
	addl	%edx, %eax
	movl	(%eax), %edx
	.loc 1 29 60
	movl	-4(%ebp), %eax
	movl	_MarchTest_Pattern_PC(,%eax,4), %eax
	.loc 1 29 16
	cmpl	%eax, %edx
	je	L6
	.loc 1 32 28
	movb	$0, -9(%ebp)
	jmp	L7
L6:
	.loc 1 37 28
	movl	-8(%ebp), %eax
	leal	0(,%eax,4), %edx
	movl	-16(%ebp), %eax
	addl	%eax, %edx
	.loc 1 37 61
	movl	-4(%ebp), %eax
	movl	_MarchTest_i_Pattern_PC(,%eax,4), %eax
	.loc 1 37 37
	movl	%eax, (%edx)
L7:
	.loc 1 41 28
	movl	-8(%ebp), %eax
	leal	0(,%eax,4), %edx
	movl	-16(%ebp), %eax
	addl	%edx, %eax
	movl	(%eax), %edx
	.loc 1 41 62
	movl	-4(%ebp), %eax
	movl	_MarchTest_i_Pattern_PC(,%eax,4), %eax
	.loc 1 41 16
	cmpl	%eax, %edx
	je	L8
	.loc 1 44 28
	movb	$0, -9(%ebp)
L8:
	.loc 1 26 45 discriminator 2
	addl	$1, -8(%ebp)
L5:
	.loc 1 26 9 discriminator 1
	cmpl	$9, -8(%ebp)
	jle	L9
	.loc 1 50 21
	movl	$9, -8(%ebp)
	.loc 1 50 9
	jmp	L10
L14:
	.loc 1 53 28
	movl	-8(%ebp), %eax
	leal	0(,%eax,4), %edx
	movl	-16(%ebp), %eax
	addl	%edx, %eax
	movl	(%eax), %edx
	.loc 1 53 62
	movl	-4(%ebp), %eax
	movl	_MarchTest_i_Pattern_PC(,%eax,4), %eax
	.loc 1 53 16
	cmpl	%eax, %edx
	je	L11
	.loc 1 56 28
	movb	$0, -9(%ebp)
	jmp	L12
L11:
	.loc 1 61 28
	movl	-8(%ebp), %eax
	leal	0(,%eax,4), %edx
	movl	-16(%ebp), %eax
	addl	%eax, %edx
	.loc 1 61 59
	movl	-4(%ebp), %eax
	movl	_MarchTest_Pattern_PC(,%eax,4), %eax
	.loc 1 61 37
	movl	%eax, (%edx)
L12:
	.loc 1 65 28
	movl	-8(%ebp), %eax
	leal	0(,%eax,4), %edx
	movl	-16(%ebp), %eax
	addl	%edx, %eax
	movl	(%eax), %edx
	.loc 1 65 60
	movl	-4(%ebp), %eax
	movl	_MarchTest_Pattern_PC(,%eax,4), %eax
	.loc 1 65 16
	cmpl	%eax, %edx
	je	L13
	.loc 1 68 28
	movb	$0, -9(%ebp)
L13:
	.loc 1 50 52 discriminator 2
	subl	$1, -8(%ebp)
L10:
	.loc 1 50 9 discriminator 1
	cmpl	$0, -8(%ebp)
	jns	L14
	.loc 1 74 21
	movl	$0, -8(%ebp)
	.loc 1 74 9
	jmp	L15
L16:
	.loc 1 76 24 discriminator 3
	movl	-8(%ebp), %eax
	leal	0(,%eax,4), %edx
	movl	-16(%ebp), %eax
	addl	%eax, %edx
	.loc 1 76 57 discriminator 3
	movl	-4(%ebp), %eax
	movl	_MarchTest_i_Pattern_PC(,%eax,4), %eax
	.loc 1 76 33 discriminator 3
	movl	%eax, (%edx)
	.loc 1 74 45 discriminator 3
	addl	$1, -8(%ebp)
L15:
	.loc 1 74 9 discriminator 1
	cmpl	$9, -8(%ebp)
	jle	L16
	.loc 1 81 21
	movl	$0, -8(%ebp)
	.loc 1 81 9
	jmp	L17
L21:
	.loc 1 84 28
	movl	-8(%ebp), %eax
	leal	0(,%eax,4), %edx
	movl	-16(%ebp), %eax
	addl	%edx, %eax
	movl	(%eax), %edx
	.loc 1 84 62
	movl	-4(%ebp), %eax
	movl	_MarchTest_i_Pattern_PC(,%eax,4), %eax
	.loc 1 84 16
	cmpl	%eax, %edx
	je	L18
	.loc 1 87 28
	movb	$0, -9(%ebp)
	jmp	L19
L18:
	.loc 1 92 28
	movl	-8(%ebp), %eax
	leal	0(,%eax,4), %edx
	movl	-16(%ebp), %eax
	addl	%eax, %edx
	.loc 1 92 59
	movl	-4(%ebp), %eax
	movl	_MarchTest_Pattern_PC(,%eax,4), %eax
	.loc 1 92 37
	movl	%eax, (%edx)
L19:
	.loc 1 96 28
	movl	-8(%ebp), %eax
	leal	0(,%eax,4), %edx
	movl	-16(%ebp), %eax
	addl	%edx, %eax
	movl	(%eax), %edx
	.loc 1 96 60
	movl	-4(%ebp), %eax
	movl	_MarchTest_Pattern_PC(,%eax,4), %eax
	.loc 1 96 16
	cmpl	%eax, %edx
	je	L20
	.loc 1 99 28
	movb	$0, -9(%ebp)
L20:
	.loc 1 81 45 discriminator 2
	addl	$1, -8(%ebp)
L17:
	.loc 1 81 9 discriminator 1
	cmpl	$9, -8(%ebp)
	jle	L21
	.loc 1 105 21
	movl	$9, -8(%ebp)
	.loc 1 105 9
	jmp	L22
L26:
	.loc 1 108 28
	movl	-8(%ebp), %eax
	leal	0(,%eax,4), %edx
	movl	-16(%ebp), %eax
	addl	%edx, %eax
	movl	(%eax), %edx
	.loc 1 108 60
	movl	-4(%ebp), %eax
	movl	_MarchTest_Pattern_PC(,%eax,4), %eax
	.loc 1 108 16
	cmpl	%eax, %edx
	je	L23
	.loc 1 111 28
	movb	$0, -9(%ebp)
	jmp	L24
L23:
	.loc 1 116 28
	movl	-8(%ebp), %eax
	leal	0(,%eax,4), %edx
	movl	-16(%ebp), %eax
	addl	%eax, %edx
	.loc 1 116 61
	movl	-4(%ebp), %eax
	movl	_MarchTest_i_Pattern_PC(,%eax,4), %eax
	.loc 1 116 37
	movl	%eax, (%edx)
L24:
	.loc 1 120 28
	movl	-8(%ebp), %eax
	leal	0(,%eax,4), %edx
	movl	-16(%ebp), %eax
	addl	%edx, %eax
	movl	(%eax), %edx
	.loc 1 120 62
	movl	-4(%ebp), %eax
	movl	_MarchTest_i_Pattern_PC(,%eax,4), %eax
	.loc 1 120 16
	cmpl	%eax, %edx
	je	L25
	.loc 1 123 28
	movb	$0, -9(%ebp)
L25:
	.loc 1 105 52 discriminator 2
	subl	$1, -8(%ebp)
L22:
	.loc 1 105 9 discriminator 1
	cmpl	$0, -8(%ebp)
	jns	L26
	.loc 1 15 40 discriminator 2
	addl	$1, -4(%ebp)
L2:
	.loc 1 15 5 discriminator 1
	cmpl	$5, -4(%ebp)
	jbe	L27
	.loc 1 128 12
	movzbl	-9(%ebp), %eax
	.loc 1 129 1
	leave
	.cfi_restore 5
	.cfi_def_cfa 4, 4
	ret
	.cfi_endproc
LFE13:
Letext0:
	.file 2 "c:/mingw/include/stdio.h"
	.file 3 "g:/my_svn/git/myprograms/others/completed/ramtst_algorithms/code/Typedef.h"
	.file 4 "g:/my_svn/git/myprograms/others/completed/ramtst_algorithms/code/March_Test_Algorithm.h"