	.file	"Walk_Path_Test_Algorithm.c"
	.text
Ltext0:
	.comm	_TestArray, 40, 5
	.globl	_WalkPath_Pattern_PC
	.data
	.align 4
_WalkPath_Pattern_PC:
	.long	0
	.long	65535
	.long	16711935
	.long	252645135
	.long	858993459
	.long	1431655765
	.globl	_WalkPath_i_Pattern_PC
	.align 4
_WalkPath_i_Pattern_PC:
	.long	-1
	.long	-65536
	.long	-16711936
	.long	-252645136
	.long	-858993460
	.long	-1431655766
	.text
	.globl	_Walk_Path_Test_Algorithm
	.def	_Walk_Path_Test_Algorithm;	.scl	2;	.type	32;	.endef
_Walk_Path_Test_Algorithm:
LFB7:
	.file 1 "/cygdrive/f/My_SVN/Google_Drive/Official/Others/Programs/Others/In_Progress/RamTst_Algorithms/platform/Linux/../../code/Walk_Path_Test_Algorithm.c"
	.loc 1 4 0
	.cfi_startproc
	pushl	%ebp
	.cfi_def_cfa_offset 8
	.cfi_offset 5, -8
	movl	%esp, %ebp
	.cfi_def_cfa_register 5
	subl	$16, %esp
	.loc 1 10 0
	movb	$1, -5(%ebp)
	.loc 1 11 0
	movl	$_TestArray, -12(%ebp)
	.loc 1 14 0
	movb	$0, -1(%ebp)
	jmp	L2
L15:
	.loc 1 18 0
	movw	$0, -4(%ebp)
	jmp	L3
L4:
	.loc 1 20 0 discriminator 2
	movzwl	-4(%ebp), %eax
	leal	0(,%eax,4), %edx
	movl	-12(%ebp), %eax
	addl	%eax, %edx
	movzbl	-1(%ebp), %eax
	movl	_WalkPath_Pattern_PC(,%eax,4), %eax
	movl	%eax, (%edx)
	.loc 1 18 0 discriminator 2
	movzwl	-4(%ebp), %eax
	addl	$1, %eax
	movw	%ax, -4(%ebp)
L3:
	.loc 1 18 0 is_stmt 0 discriminator 1
	cmpw	$9, -4(%ebp)
	jbe	L4
	.loc 1 23 0 is_stmt 1
	movw	$0, -4(%ebp)
	jmp	L5
L8:
	.loc 1 25 0
	movzwl	-4(%ebp), %eax
	leal	0(,%eax,4), %edx
	movl	-12(%ebp), %eax
	addl	%eax, %edx
	movzbl	-1(%ebp), %eax
	movl	_WalkPath_i_Pattern_PC(,%eax,4), %eax
	movl	%eax, (%edx)
	.loc 1 26 0
	movzwl	-4(%ebp), %eax
	leal	0(,%eax,4), %edx
	movl	-12(%ebp), %eax
	addl	%edx, %eax
	movl	(%eax), %edx
	movzbl	-1(%ebp), %eax
	movl	_WalkPath_i_Pattern_PC(,%eax,4), %eax
	cmpl	%eax, %edx
	je	L6
	.loc 1 28 0
	movb	$0, -5(%ebp)
	jmp	L7
L6:
	.loc 1 32 0
	movzwl	-4(%ebp), %eax
	leal	0(,%eax,4), %edx
	movl	-12(%ebp), %eax
	addl	%eax, %edx
	movzbl	-1(%ebp), %eax
	movl	_WalkPath_Pattern_PC(,%eax,4), %eax
	movl	%eax, (%edx)
L7:
	.loc 1 23 0
	movzwl	-4(%ebp), %eax
	addl	$1, %eax
	movw	%ax, -4(%ebp)
L5:
	.loc 1 23 0 is_stmt 0 discriminator 1
	cmpw	$9, -4(%ebp)
	jbe	L8
	.loc 1 38 0 is_stmt 1
	movw	$0, -4(%ebp)
	jmp	L9
L10:
	.loc 1 40 0 discriminator 2
	movzwl	-4(%ebp), %eax
	leal	0(,%eax,4), %edx
	movl	-12(%ebp), %eax
	addl	%eax, %edx
	movzbl	-1(%ebp), %eax
	movl	_WalkPath_i_Pattern_PC(,%eax,4), %eax
	movl	%eax, (%edx)
	.loc 1 38 0 discriminator 2
	movzwl	-4(%ebp), %eax
	addl	$1, %eax
	movw	%ax, -4(%ebp)
L9:
	.loc 1 38 0 is_stmt 0 discriminator 1
	cmpw	$9, -4(%ebp)
	jbe	L10
	.loc 1 43 0 is_stmt 1
	movw	$0, -4(%ebp)
	jmp	L11
L14:
	.loc 1 45 0
	movzwl	-4(%ebp), %eax
	leal	0(,%eax,4), %edx
	movl	-12(%ebp), %eax
	addl	%eax, %edx
	movzbl	-1(%ebp), %eax
	movl	_WalkPath_Pattern_PC(,%eax,4), %eax
	movl	%eax, (%edx)
	.loc 1 46 0
	movzwl	-4(%ebp), %eax
	leal	0(,%eax,4), %edx
	movl	-12(%ebp), %eax
	addl	%edx, %eax
	movl	(%eax), %edx
	movzbl	-1(%ebp), %eax
	movl	_WalkPath_Pattern_PC(,%eax,4), %eax
	cmpl	%eax, %edx
	je	L12
	.loc 1 48 0
	movb	$0, -5(%ebp)
	jmp	L13
L12:
	.loc 1 52 0
	movzwl	-4(%ebp), %eax
	leal	0(,%eax,4), %edx
	movl	-12(%ebp), %eax
	addl	%eax, %edx
	movzbl	-1(%ebp), %eax
	movl	_WalkPath_i_Pattern_PC(,%eax,4), %eax
	movl	%eax, (%edx)
L13:
	.loc 1 43 0
	movzwl	-4(%ebp), %eax
	addl	$1, %eax
	movw	%ax, -4(%ebp)
L11:
	.loc 1 43 0 is_stmt 0 discriminator 1
	cmpw	$9, -4(%ebp)
	jbe	L14
	.loc 1 14 0 is_stmt 1
	movzbl	-1(%ebp), %eax
	addl	$1, %eax
	movb	%al, -1(%ebp)
L2:
	.loc 1 14 0 is_stmt 0 discriminator 1
	cmpb	$5, -1(%ebp)
	jbe	L15
	.loc 1 57 0 is_stmt 1
	movzbl	-5(%ebp), %eax
	.loc 1 58 0
	leave
	.cfi_restore 5
	.cfi_def_cfa 4, 4
	ret
	.cfi_endproc
LFE7:
Letext0:
	.file 2 "/cygdrive/f/My_SVN/Google_Drive/Official/Others/Programs/Others/In_Progress/RamTst_Algorithms/platform/Linux/../../code/Typedef.h"
	.file 3 "/cygdrive/f/My_SVN/Google_Drive/Official/Others/Programs/Others/In_Progress/RamTst_Algorithms/platform/Linux/../../code/Walk_Path_Test_Algorithm.h"