	.file	"singly_linked_list.c"
	.text
Ltext0:
	.comm	_S_Head_Node, 4, 2
	.section .rdata,"dr"
LC0:
	.ascii "Allocation Failed...\0"
	.text
	.globl	_S_Create_Node
	.def	_S_Create_Node;	.scl	2;	.type	32;	.endef
_S_Create_Node:
LFB23:
	.file 1 "G:/My_SVN/Git/MyPrograms/Others/Completed/Singly_Linked_List/platform/Windows/../../code/Singly_Linked_List.c"
	.loc 1 4 1
	.cfi_startproc
	pushl	%ebp
	.cfi_def_cfa_offset 8
	.cfi_offset 5, -8
	movl	%esp, %ebp
	.cfi_def_cfa_register 5
	subl	$40, %esp
	.loc 1 5 15
	movl	$0, -12(%ebp)
	.loc 1 6 31
	movl	$8, (%esp)
	call	_malloc
	movl	%eax, -12(%ebp)
	.loc 1 8 5
	cmpl	$0, -12(%ebp)
	jne	L2
	.loc 1 10 5
	movl	$LC0, (%esp)
	call	_puts
	.loc 1 11 12
	movl	$0, %eax
	jmp	L3
L2:
	.loc 1 14 33
	movl	8(%ebp), %eax
	movl	(%eax), %edx
	.loc 1 14 22
	movl	-12(%ebp), %eax
	movl	%edx, (%eax)
	.loc 1 15 33
	movl	8(%ebp), %eax
	movl	4(%eax), %edx
	.loc 1 15 22
	movl	-12(%ebp), %eax
	movl	%edx, 4(%eax)
	.loc 1 17 10
	movl	-12(%ebp), %eax
L3:
	.loc 1 18 1
	leave
	.cfi_restore 5
	.cfi_def_cfa 4, 4
	ret
	.cfi_endproc
LFE23:
	.globl	_S_Insert_Before_Node
	.def	_S_Insert_Before_Node;	.scl	2;	.type	32;	.endef
_S_Insert_Before_Node:
LFB24:
	.loc 1 21 1
	.cfi_startproc
	pushl	%ebp
	.cfi_def_cfa_offset 8
	.cfi_offset 5, -8
	movl	%esp, %ebp
	.cfi_def_cfa_register 5
	subl	$40, %esp
	.loc 1 22 15
	movl	$0, -20(%ebp)
	.loc 1 23 15
	movl	_S_Head_Node, %eax
	movl	%eax, -12(%ebp)
	.loc 1 24 15
	movl	-12(%ebp), %eax
	movl	4(%eax), %eax
	movl	%eax, -16(%ebp)
	.loc 1 27 5
	cmpl	$0, -12(%ebp)
	jne	L5
	.loc 1 28 12
	movl	$0, %eax
	jmp	L6
L5:
	.loc 1 29 21
	movl	-12(%ebp), %eax
	movl	(%eax), %edx
	.loc 1 29 43
	movl	8(%ebp), %eax
	.loc 1 29 10
	cmpl	%eax, %edx
	jne	L8
	.loc 1 31 20
	leal	16(%ebp), %eax
	movl	%eax, (%esp)
	call	_S_Create_Node
	movl	%eax, -20(%ebp)
	.loc 1 32 24
	movl	-20(%ebp), %eax
	movl	-12(%ebp), %edx
	movl	%edx, 4(%eax)
	.loc 1 33 17
	movl	-20(%ebp), %eax
	movl	%eax, _S_Head_Node
	.loc 1 34 12
	movl	$1, %eax
	jmp	L6
L10:
	.loc 1 40 9
	cmpl	$0, -16(%ebp)
	jne	L9
	.loc 1 41 16
	movl	$0, %eax
	jmp	L6
L9:
	.loc 1 42 18
	movl	-16(%ebp), %eax
	movl	%eax, -12(%ebp)
	.loc 1 43 18
	movl	-16(%ebp), %eax
	movl	4(%eax), %eax
	movl	%eax, -16(%ebp)
L8:
	.loc 1 38 21
	movl	-16(%ebp), %eax
	movl	(%eax), %edx
	.loc 1 38 43
	movl	8(%ebp), %eax
	.loc 1 38 10
	cmpl	%eax, %edx
	jne	L10
	.loc 1 45 20
	leal	16(%ebp), %eax
	movl	%eax, (%esp)
	call	_S_Create_Node
	movl	%eax, -20(%ebp)
	.loc 1 46 22
	movl	-12(%ebp), %eax
	movl	-20(%ebp), %edx
	movl	%edx, 4(%eax)
	.loc 1 47 24
	movl	-20(%ebp), %eax
	movl	-16(%ebp), %edx
	movl	%edx, 4(%eax)
	.loc 1 49 10
	movl	$1, %eax
L6:
	.loc 1 50 1
	leave
	.cfi_restore 5
	.cfi_def_cfa 4, 4
	ret
	.cfi_endproc
LFE24:
	.globl	_S_Insert_After_Node
	.def	_S_Insert_After_Node;	.scl	2;	.type	32;	.endef
_S_Insert_After_Node:
LFB25:
	.loc 1 53 1
	.cfi_startproc
	pushl	%ebp
	.cfi_def_cfa_offset 8
	.cfi_offset 5, -8
	movl	%esp, %ebp
	.cfi_def_cfa_register 5
	subl	$40, %esp
	.loc 1 54 15
	movl	$0, -16(%ebp)
	.loc 1 55 15
	movl	_S_Head_Node, %eax
	movl	%eax, -12(%ebp)
	.loc 1 57 5
	cmpl	$0, -12(%ebp)
	jne	L14
	.loc 1 58 12
	movl	$0, %eax
	jmp	L13
L16:
	.loc 1 63 20
	movl	-12(%ebp), %eax
	movl	4(%eax), %eax
	.loc 1 63 9
	testl	%eax, %eax
	jne	L15
	.loc 1 64 16
	movl	$0, %eax
	jmp	L13
L15:
	.loc 1 65 18
	movl	-12(%ebp), %eax
	movl	4(%eax), %eax
	movl	%eax, -12(%ebp)
L14:
	.loc 1 61 21
	movl	-12(%ebp), %eax
	movl	(%eax), %edx
	.loc 1 61 43
	movl	8(%ebp), %eax
	.loc 1 61 10
	cmpl	%eax, %edx
	jne	L16
	.loc 1 67 20
	leal	16(%ebp), %eax
	movl	%eax, (%esp)
	call	_S_Create_Node
	movl	%eax, -16(%ebp)
	.loc 1 68 36
	movl	-12(%ebp), %eax
	movl	4(%eax), %edx
	.loc 1 68 24
	movl	-16(%ebp), %eax
	movl	%edx, 4(%eax)
	.loc 1 69 22
	movl	-12(%ebp), %eax
	movl	-16(%ebp), %edx
	movl	%edx, 4(%eax)
	.loc 1 71 10
	movl	$1, %eax
L13:
	.loc 1 72 1
	leave
	.cfi_restore 5
	.cfi_def_cfa 4, 4
	ret
	.cfi_endproc
LFE25:
	.globl	_S_Insert_In_Front
	.def	_S_Insert_In_Front;	.scl	2;	.type	32;	.endef
_S_Insert_In_Front:
LFB26:
	.loc 1 75 1
	.cfi_startproc
	pushl	%ebp
	.cfi_def_cfa_offset 8
	.cfi_offset 5, -8
	movl	%esp, %ebp
	.cfi_def_cfa_register 5
	subl	$40, %esp
	.loc 1 76 15
	movl	$0, -12(%ebp)
	.loc 1 78 18
	movl	_S_Head_Node, %eax
	.loc 1 78 5
	testl	%eax, %eax
	jne	L18
	.loc 1 79 12
	movl	$0, %eax
	jmp	L19
L18:
	.loc 1 80 18
	leal	8(%ebp), %eax
	movl	%eax, (%esp)
	call	_S_Create_Node
	movl	%eax, -12(%ebp)
	.loc 1 81 22
	movl	_S_Head_Node, %edx
	movl	-12(%ebp), %eax
	movl	%edx, 4(%eax)
	.loc 1 82 15
	movl	-12(%ebp), %eax
	movl	%eax, _S_Head_Node
	.loc 1 83 10
	movl	$1, %eax
L19:
	.loc 1 84 1
	leave
	.cfi_restore 5
	.cfi_def_cfa 4, 4
	ret
	.cfi_endproc
LFE26:
	.globl	_S_Insert_In_End
	.def	_S_Insert_In_End;	.scl	2;	.type	32;	.endef
_S_Insert_In_End:
LFB27:
	.loc 1 87 1
	.cfi_startproc
	pushl	%ebp
	.cfi_def_cfa_offset 8
	.cfi_offset 5, -8
	movl	%esp, %ebp
	.cfi_def_cfa_register 5
	subl	$40, %esp
	.loc 1 88 15
	movl	$0, -16(%ebp)
	.loc 1 89 15
	movl	_S_Head_Node, %eax
	movl	%eax, -12(%ebp)
	.loc 1 91 5
	cmpl	$0, -12(%ebp)
	jne	L23
	.loc 1 92 12
	movl	$0, %eax
	jmp	L22
L24:
	.loc 1 94 14
	movl	-12(%ebp), %eax
	movl	4(%eax), %eax
	movl	%eax, -12(%ebp)
L23:
	.loc 1 93 17
	movl	-12(%ebp), %eax
	movl	4(%eax), %eax
	.loc 1 93 8
	testl	%eax, %eax
	jne	L24
	.loc 1 96 18
	leal	8(%ebp), %eax
	movl	%eax, (%esp)
	call	_S_Create_Node
	movl	%eax, -16(%ebp)
	.loc 1 97 18
	movl	-12(%ebp), %eax
	movl	-16(%ebp), %edx
	movl	%edx, 4(%eax)
	.loc 1 98 22
	movl	-16(%ebp), %eax
	movl	$0, 4(%eax)
	.loc 1 99 10
	movl	$1, %eax
L22:
	.loc 1 100 1
	leave
	.cfi_restore 5
	.cfi_def_cfa 4, 4
	ret
	.cfi_endproc
LFE27:
	.globl	_S_Insert_Ascending_Order
	.def	_S_Insert_Ascending_Order;	.scl	2;	.type	32;	.endef
_S_Insert_Ascending_Order:
LFB28:
	.loc 1 104 1
	.cfi_startproc
	pushl	%ebp
	.cfi_def_cfa_offset 8
	.cfi_offset 5, -8
	movl	%esp, %ebp
	.cfi_def_cfa_register 5
	subl	$24, %esp
	.loc 1 105 18
	movl	_S_Head_Node, %eax
	.loc 1 105 5
	testl	%eax, %eax
	jne	L26
	.loc 1 106 12
	movl	$0, %eax
	jmp	L27
L26:
	.loc 1 107 22
	movl	_S_Head_Node, %eax
	movl	(%eax), %edx
	.loc 1 107 40
	movl	8(%ebp), %eax
	.loc 1 107 10
	cmpl	%eax, %edx
	jle	L28
	.loc 1 109 5
	movl	_S_Head_Node, %ecx
	movl	8(%ebp), %eax
	movl	12(%ebp), %edx
	movl	%eax, 8(%esp)
	movl	%edx, 12(%esp)
	movl	(%ecx), %eax
	movl	4(%ecx), %edx
	movl	%eax, (%esp)
	movl	%edx, 4(%esp)
	call	_S_Insert_Before_Node
	jmp	L29
L28:
	.loc 1 113 5
	movl	_S_Head_Node, %ecx
	movl	8(%ebp), %eax
	movl	12(%ebp), %edx
	movl	%eax, 8(%esp)
	movl	%edx, 12(%esp)
	movl	(%ecx), %eax
	movl	4(%ecx), %edx
	movl	%eax, (%esp)
	movl	%edx, 4(%esp)
	call	_S_Insert_After_Node
L29:
	.loc 1 115 10
	movl	$1, %eax
L27:
	.loc 1 116 1
	leave
	.cfi_restore 5
	.cfi_def_cfa 4, 4
	ret
	.cfi_endproc
LFE28:
	.globl	_S_Insert_Descending_Order
	.def	_S_Insert_Descending_Order;	.scl	2;	.type	32;	.endef
_S_Insert_Descending_Order:
LFB29:
	.loc 1 119 1
	.cfi_startproc
	pushl	%ebp
	.cfi_def_cfa_offset 8
	.cfi_offset 5, -8
	movl	%esp, %ebp
	.cfi_def_cfa_register 5
	subl	$24, %esp
	.loc 1 120 18
	movl	_S_Head_Node, %eax
	.loc 1 120 5
	testl	%eax, %eax
	jne	L31
	.loc 1 121 12
	movl	$0, %eax
	jmp	L32
L31:
	.loc 1 122 22
	movl	_S_Head_Node, %eax
	movl	(%eax), %edx
	.loc 1 122 40
	movl	8(%ebp), %eax
	.loc 1 122 10
	cmpl	%eax, %edx
	jge	L33
	.loc 1 124 5
	movl	_S_Head_Node, %ecx
	movl	8(%ebp), %eax
	movl	12(%ebp), %edx
	movl	%eax, 8(%esp)
	movl	%edx, 12(%esp)
	movl	(%ecx), %eax
	movl	4(%ecx), %edx
	movl	%eax, (%esp)
	movl	%edx, 4(%esp)
	call	_S_Insert_Before_Node
	jmp	L34
L33:
	.loc 1 128 5
	movl	_S_Head_Node, %ecx
	movl	8(%ebp), %eax
	movl	12(%ebp), %edx
	movl	%eax, 8(%esp)
	movl	%edx, 12(%esp)
	movl	(%ecx), %eax
	movl	4(%ecx), %edx
	movl	%eax, (%esp)
	movl	%edx, 4(%esp)
	call	_S_Insert_After_Node
L34:
	.loc 1 130 10
	movl	$1, %eax
L32:
	.loc 1 131 1
	leave
	.cfi_restore 5
	.cfi_def_cfa 4, 4
	ret
	.cfi_endproc
LFE29:
	.globl	_S_Insert_Node_At_Specific_Position
	.def	_S_Insert_Node_At_Specific_Position;	.scl	2;	.type	32;	.endef
_S_Insert_Node_At_Specific_Position:
LFB30:
	.loc 1 134 1
	.cfi_startproc
	pushl	%ebp
	.cfi_def_cfa_offset 8
	.cfi_offset 5, -8
	movl	%esp, %ebp
	.cfi_def_cfa_register 5
	subl	$56, %esp
	movl	8(%ebp), %eax
	movb	%al, -28(%ebp)
	.loc 1 135 15
	movl	_S_Head_Node, %eax
	movl	%eax, -12(%ebp)
	.loc 1 136 6
	movb	$0, -13(%ebp)
	.loc 1 138 18
	movl	_S_Head_Node, %eax
	.loc 1 138 5
	testl	%eax, %eax
	jne	L36
	.loc 1 139 12
	movl	$0, %eax
	jmp	L37
L36:
	.loc 1 140 8
	movb	$0, -13(%ebp)
	.loc 1 140 3
	jmp	L38
L40:
	.loc 1 142 7
	cmpl	$0, -12(%ebp)
	jne	L39
	.loc 1 143 14
	movl	$0, %eax
	jmp	L37
L39:
	.loc 1 145 18 discriminator 2
	movl	-12(%ebp), %eax
	movl	4(%eax), %eax
	movl	%eax, -12(%ebp)
	.loc 1 140 26 discriminator 2
	movzbl	-13(%ebp), %eax
	addl	$1, %eax
	movb	%al, -13(%ebp)
L38:
	.loc 1 140 13 discriminator 1
	movzbl	-13(%ebp), %eax
	.loc 1 140 20 discriminator 1
	movzbl	-28(%ebp), %edx
	subl	$1, %edx
	.loc 1 140 3 discriminator 1
	cmpl	%edx, %eax
	jl	L40
	.loc 1 148 10
	movl	12(%ebp), %eax
	movl	4(%eax), %edx
	movl	(%eax), %eax
	movl	%eax, 8(%esp)
	movl	%edx, 12(%esp)
	movl	-12(%ebp), %eax
	movl	4(%eax), %edx
	movl	(%eax), %eax
	movl	%eax, (%esp)
	movl	%edx, 4(%esp)
	call	_S_Insert_Before_Node
L37:
	.loc 1 149 1
	leave
	.cfi_restore 5
	.cfi_def_cfa 4, 4
	ret
	.cfi_endproc
LFE30:
	.globl	_S_Delete_Front
	.def	_S_Delete_Front;	.scl	2;	.type	32;	.endef
_S_Delete_Front:
LFB31:
	.loc 1 152 1
	.cfi_startproc
	pushl	%ebp
	.cfi_def_cfa_offset 8
	.cfi_offset 5, -8
	movl	%esp, %ebp
	.cfi_def_cfa_register 5
	subl	$40, %esp
	.loc 1 153 15
	movl	_S_Head_Node, %eax
	movl	%eax, -12(%ebp)
	.loc 1 155 5
	cmpl	$0, -12(%ebp)
	jne	L42
	.loc 1 156 12
	movl	$0, %eax
	jmp	L43
L42:
	.loc 1 158 28
	movl	_S_Head_Node, %eax
	movl	4(%eax), %eax
	.loc 1 158 15
	movl	%eax, _S_Head_Node
	movl	-12(%ebp), %eax
	movl	%eax, -16(%ebp)
LBB18:
LBB19:
	.file 2 "c:/mingw/include/stdlib.h"
	.loc 2 586 3
	movl	-16(%ebp), %eax
	movl	%eax, (%esp)
	call	___mingw_free
	.loc 2 586 1
	nop
LBE19:
LBE18:
	.loc 1 160 10
	movl	$1, %eax
L43:
	.loc 1 161 1
	leave
	.cfi_restore 5
	.cfi_def_cfa 4, 4
	ret
	.cfi_endproc
LFE31:
	.globl	_S_Delete_End
	.def	_S_Delete_End;	.scl	2;	.type	32;	.endef
_S_Delete_End:
LFB32:
	.loc 1 164 1
	.cfi_startproc
	pushl	%ebp
	.cfi_def_cfa_offset 8
	.cfi_offset 5, -8
	movl	%esp, %ebp
	.cfi_def_cfa_register 5
	subl	$40, %esp
	.loc 1 165 15
	movl	_S_Head_Node, %eax
	movl	%eax, -12(%ebp)
	.loc 1 166 15
	movl	-12(%ebp), %eax
	movl	4(%eax), %eax
	movl	%eax, -16(%ebp)
	.loc 1 168 5
	cmpl	$0, -12(%ebp)
	jne	L45
	.loc 1 169 12
	movl	$0, %eax
	jmp	L46
L45:
	.loc 1 170 21
	movl	-12(%ebp), %eax
	movl	4(%eax), %eax
	.loc 1 170 10
	testl	%eax, %eax
	jne	L48
	.loc 1 172 17
	movl	$0, _S_Head_Node
	movl	-12(%ebp), %eax
	movl	%eax, -20(%ebp)
LBB20:
LBB21:
	.loc 2 586 3
	movl	-20(%ebp), %eax
	movl	%eax, (%esp)
	call	___mingw_free
	.loc 2 586 1
	nop
LBE21:
LBE20:
	.loc 1 174 12
	movl	$1, %eax
	jmp	L46
L49:
	.loc 1 180 18
	movl	-16(%ebp), %eax
	movl	%eax, -12(%ebp)
	.loc 1 181 18
	movl	-16(%ebp), %eax
	movl	4(%eax), %eax
	movl	%eax, -16(%ebp)
L48:
	.loc 1 178 21
	movl	-16(%ebp), %eax
	movl	4(%eax), %eax
	.loc 1 178 10
	testl	%eax, %eax
	jne	L49
	.loc 1 183 22
	movl	-12(%ebp), %eax
	movl	$0, 4(%eax)
	movl	-16(%ebp), %eax
	movl	%eax, -24(%ebp)
LBB22:
LBB23:
	.loc 2 586 3
	movl	-24(%ebp), %eax
	movl	%eax, (%esp)
	call	___mingw_free
	.loc 2 586 1
	nop
LBE23:
LBE22:
	.loc 1 186 10
	movl	$1, %eax
L46:
	.loc 1 187 1
	leave
	.cfi_restore 5
	.cfi_def_cfa 4, 4
	ret
	.cfi_endproc
LFE32:
	.globl	_S_Delete_All
	.def	_S_Delete_All;	.scl	2;	.type	32;	.endef
_S_Delete_All:
LFB33:
	.loc 1 190 1
	.cfi_startproc
	pushl	%ebp
	.cfi_def_cfa_offset 8
	.cfi_offset 5, -8
	movl	%esp, %ebp
	.cfi_def_cfa_register 5
	subl	$40, %esp
	.loc 1 191 15
	movl	_S_Head_Node, %eax
	movl	%eax, -12(%ebp)
	.loc 1 192 15
	movl	-12(%ebp), %eax
	movl	4(%eax), %eax
	movl	%eax, -16(%ebp)
	.loc 1 194 5
	cmpl	$0, -12(%ebp)
	jne	L51
	.loc 1 195 12
	movl	$0, %eax
	jmp	L52
L51:
	.loc 1 196 21
	movl	-12(%ebp), %eax
	movl	4(%eax), %eax
	.loc 1 196 10
	testl	%eax, %eax
	jne	L54
	.loc 1 198 17
	movl	$0, _S_Head_Node
	movl	-12(%ebp), %eax
	movl	%eax, -20(%ebp)
LBB24:
LBB25:
	.loc 2 586 3
	movl	-20(%ebp), %eax
	movl	%eax, (%esp)
	call	___mingw_free
	.loc 2 586 1
	nop
LBE25:
LBE24:
	.loc 1 200 12
	movl	$1, %eax
	jmp	L52
L55:
	.loc 1 206 18
	movl	-16(%ebp), %eax
	movl	%eax, -12(%ebp)
	.loc 1 207 18
	movl	-16(%ebp), %eax
	movl	4(%eax), %eax
	movl	%eax, -16(%ebp)
L54:
	.loc 1 204 21
	movl	-12(%ebp), %eax
	movl	4(%eax), %eax
	.loc 1 204 10
	testl	%eax, %eax
	jne	L55
	movl	-12(%ebp), %eax
	movl	%eax, -24(%ebp)
LBB26:
LBB27:
	.loc 2 586 3
	movl	-24(%ebp), %eax
	movl	%eax, (%esp)
	call	___mingw_free
	.loc 2 586 1
	nop
LBE27:
LBE26:
	.loc 1 211 15
	movl	$0, _S_Head_Node
	.loc 1 212 10
	movl	$1, %eax
L52:
	.loc 1 213 1
	leave
	.cfi_restore 5
	.cfi_def_cfa 4, 4
	ret
	.cfi_endproc
LFE33:
	.globl	_S_Delete_Node
	.def	_S_Delete_Node;	.scl	2;	.type	32;	.endef
_S_Delete_Node:
LFB34:
	.loc 1 216 1
	.cfi_startproc
	pushl	%ebp
	.cfi_def_cfa_offset 8
	.cfi_offset 5, -8
	movl	%esp, %ebp
	.cfi_def_cfa_register 5
	subl	$40, %esp
	.loc 1 217 15
	movl	_S_Head_Node, %eax
	movl	%eax, -12(%ebp)
	.loc 1 218 15
	movl	-12(%ebp), %eax
	movl	4(%eax), %eax
	movl	%eax, -16(%ebp)
	.loc 1 220 5
	cmpl	$0, -12(%ebp)
	jne	L57
	.loc 1 221 12
	movl	$0, %eax
	jmp	L58
L57:
	.loc 1 222 21
	movl	-12(%ebp), %eax
	movl	(%eax), %edx
	.loc 1 222 43
	movl	8(%ebp), %eax
	.loc 1 222 10
	cmpl	%eax, %edx
	jne	L60
	movl	-12(%ebp), %eax
	movl	%eax, -20(%ebp)
LBB28:
LBB29:
	.loc 2 586 3
	movl	-20(%ebp), %eax
	movl	%eax, (%esp)
	call	___mingw_free
	.loc 2 586 1
	nop
LBE29:
LBE28:
	.loc 1 225 17
	movl	-16(%ebp), %eax
	movl	%eax, _S_Head_Node
	.loc 1 226 12
	movl	$1, %eax
	jmp	L58
L61:
	.loc 1 232 18
	movl	-16(%ebp), %eax
	movl	%eax, -12(%ebp)
	.loc 1 233 18
	movl	-16(%ebp), %eax
	movl	4(%eax), %eax
	movl	%eax, -16(%ebp)
L60:
	.loc 1 230 21
	movl	-16(%ebp), %eax
	movl	(%eax), %edx
	.loc 1 230 43
	movl	8(%ebp), %eax
	.loc 1 230 10
	cmpl	%eax, %edx
	jne	L61
	.loc 1 235 34
	movl	-16(%ebp), %eax
	movl	4(%eax), %edx
	.loc 1 235 22
	movl	-12(%ebp), %eax
	movl	%edx, 4(%eax)
	movl	-16(%ebp), %eax
	movl	%eax, -24(%ebp)
LBB30:
LBB31:
	.loc 2 586 3
	movl	-24(%ebp), %eax
	movl	%eax, (%esp)
	call	___mingw_free
	.loc 2 586 1
	nop
LBE31:
LBE30:
	.loc 1 238 10
	movl	$1, %eax
L58:
	.loc 1 239 1
	leave
	.cfi_restore 5
	.cfi_def_cfa 4, 4
	ret
	.cfi_endproc
LFE34:
	.globl	_S_Reverse_Linked_List
	.def	_S_Reverse_Linked_List;	.scl	2;	.type	32;	.endef
_S_Reverse_Linked_List:
LFB35:
	.loc 1 242 1
	.cfi_startproc
	pushl	%ebp
	.cfi_def_cfa_offset 8
	.cfi_offset 5, -8
	movl	%esp, %ebp
	.cfi_def_cfa_register 5
	subl	$16, %esp
	.loc 1 243 15
	movl	$0, -12(%ebp)
	.loc 1 244 15
	movl	_S_Head_Node, %eax
	movl	%eax, -4(%ebp)
	.loc 1 245 15
	movl	-4(%ebp), %eax
	movl	4(%eax), %eax
	movl	%eax, -8(%ebp)
	.loc 1 247 5
	cmpl	$0, -4(%ebp)
	jne	L63
	.loc 1 248 12
	movl	$0, %eax
	jmp	L64
L63:
	.loc 1 249 21
	movl	-4(%ebp), %eax
	movl	4(%eax), %eax
	.loc 1 249 10
	testl	%eax, %eax
	jne	L65
	.loc 1 250 12
	movl	$1, %eax
	jmp	L64
L65:
	.loc 1 253 22
	movl	-4(%ebp), %eax
	movl	$0, 4(%eax)
	.loc 1 254 10
	jmp	L66
L67:
	.loc 1 256 17
	movl	-8(%ebp), %eax
	movl	4(%eax), %eax
	movl	%eax, -12(%ebp)
	.loc 1 257 24
	movl	-8(%ebp), %eax
	movl	-4(%ebp), %edx
	movl	%edx, 4(%eax)
	.loc 1 258 18
	movl	-8(%ebp), %eax
	movl	%eax, -4(%ebp)
	.loc 1 259 18
	movl	-12(%ebp), %eax
	movl	%eax, -8(%ebp)
L66:
	.loc 1 254 21
	movl	-8(%ebp), %eax
	movl	4(%eax), %eax
	.loc 1 254 10
	testl	%eax, %eax
	jne	L67
	.loc 1 261 22
	movl	-8(%ebp), %eax
	movl	-4(%ebp), %edx
	movl	%edx, 4(%eax)
	.loc 1 262 17
	movl	-8(%ebp), %eax
	movl	%eax, _S_Head_Node
	.loc 1 264 10
	movl	$1, %eax
L64:
	.loc 1 265 1
	leave
	.cfi_restore 5
	.cfi_def_cfa 4, 4
	ret
	.cfi_endproc
LFE35:
	.section .rdata,"dr"
LC1:
	.ascii "\12Node No: %d\0"
	.text
	.globl	_S_Find_Node
	.def	_S_Find_Node;	.scl	2;	.type	32;	.endef
_S_Find_Node:
LFB36:
	.loc 1 269 1
	.cfi_startproc
	pushl	%ebp
	.cfi_def_cfa_offset 8
	.cfi_offset 5, -8
	movl	%esp, %ebp
	.cfi_def_cfa_register 5
	subl	$40, %esp
	.loc 1 270 15
	movl	_S_Head_Node, %eax
	movl	%eax, -12(%ebp)
	.loc 1 271 6
	movb	$1, -13(%ebp)
	.loc 1 273 5
	cmpl	$0, -12(%ebp)
	jne	L69
	.loc 1 274 12
	movl	$0, %eax
	jmp	L70
L69:
	.loc 1 275 21
	movl	-12(%ebp), %eax
	movl	4(%eax), %eax
	.loc 1 275 10
	testl	%eax, %eax
	jne	L72
	.loc 1 277 5
	movzbl	-13(%ebp), %eax
	movl	%eax, 4(%esp)
	movl	$LC1, (%esp)
	call	_printf
	.loc 1 278 12
	movl	$1, %eax
	jmp	L70
L73:
	.loc 1 284 7
	addb	$1, -13(%ebp)
	.loc 1 285 18
	movl	-12(%ebp), %eax
	movl	4(%eax), %eax
	movl	%eax, -12(%ebp)
	.loc 1 287 9
	cmpl	$0, -12(%ebp)
	jne	L72
	.loc 1 288 16
	movl	$0, %eax
	jmp	L70
L72:
	.loc 1 282 21
	movl	-12(%ebp), %eax
	movl	(%eax), %edx
	.loc 1 282 43
	movl	8(%ebp), %eax
	.loc 1 282 10
	cmpl	%eax, %edx
	jne	L73
	.loc 1 290 5
	movzbl	-13(%ebp), %eax
	movl	%eax, 4(%esp)
	movl	$LC1, (%esp)
	call	_printf
	.loc 1 292 10
	movl	$1, %eax
L70:
	.loc 1 293 1
	leave
	.cfi_restore 5
	.cfi_def_cfa 4, 4
	ret
	.cfi_endproc
LFE36:
	.globl	_S_Remove_Duplicates
	.def	_S_Remove_Duplicates;	.scl	2;	.type	32;	.endef
_S_Remove_Duplicates:
LFB37:
	.loc 1 297 1
	.cfi_startproc
	pushl	%ebp
	.cfi_def_cfa_offset 8
	.cfi_offset 5, -8
	movl	%esp, %ebp
	.cfi_def_cfa_register 5
	subl	$40, %esp
	.loc 1 298 15
	movl	_S_Head_Node, %eax
	movl	%eax, -12(%ebp)
	.loc 1 299 15
	movl	-12(%ebp), %eax
	movl	4(%eax), %eax
	movl	%eax, -16(%ebp)
	.loc 1 300 15
	movl	-12(%ebp), %eax
	movl	%eax, -20(%ebp)
	.loc 1 302 5
	cmpl	$0, -12(%ebp)
	jne	L75
	.loc 1 303 12
	movl	$0, %eax
	jmp	L76
L75:
	.loc 1 304 21
	movl	-12(%ebp), %eax
	movl	4(%eax), %eax
	.loc 1 304 10
	testl	%eax, %eax
	jne	L78
	.loc 1 305 12
	movl	$1, %eax
	jmp	L76
L81:
	.loc 1 312 22
	movl	-16(%ebp), %eax
	movl	(%eax), %edx
	.loc 1 312 42
	movl	-12(%ebp), %eax
	movl	(%eax), %eax
	.loc 1 312 11
	cmpl	%eax, %edx
	jne	L80
	.loc 1 314 40
	movl	-16(%ebp), %eax
	movl	4(%eax), %edx
	.loc 1 314 28
	movl	-20(%ebp), %eax
	movl	%edx, 4(%eax)
	movl	-16(%ebp), %eax
	movl	%eax, -24(%ebp)
LBB32:
LBB33:
	.loc 2 586 3
	movl	-24(%ebp), %eax
	movl	%eax, (%esp)
	call	___mingw_free
	.loc 2 586 1
	nop
LBE33:
LBE32:
	.loc 1 316 22
	movl	-20(%ebp), %eax
	movl	4(%eax), %eax
	movl	%eax, -16(%ebp)
	jmp	L79
L80:
	.loc 1 320 21
	movl	-16(%ebp), %eax
	movl	%eax, -20(%ebp)
	.loc 1 321 21
	movl	-16(%ebp), %eax
	movl	4(%eax), %eax
	movl	%eax, -16(%ebp)
L79:
	.loc 1 310 12
	cmpl	$0, -16(%ebp)
	jne	L81
	.loc 1 324 18
	movl	-12(%ebp), %eax
	movl	4(%eax), %eax
	movl	%eax, -12(%ebp)
	.loc 1 325 10
	cmpl	$0, -12(%ebp)
	je	L82
	.loc 1 326 20
	movl	-12(%ebp), %eax
	movl	4(%eax), %eax
	movl	%eax, -16(%ebp)
L82:
	.loc 1 327 18
	movl	-12(%ebp), %eax
	movl	%eax, -20(%ebp)
L78:
	.loc 1 308 10
	cmpl	$0, -12(%ebp)
	jne	L79
	.loc 1 330 10
	movl	$1, %eax
L76:
	.loc 1 331 1
	leave
	.cfi_restore 5
	.cfi_def_cfa 4, 4
	ret
	.cfi_endproc
LFE37:
	.globl	_S_Sort_List_Ascending
	.def	_S_Sort_List_Ascending;	.scl	2;	.type	32;	.endef
_S_Sort_List_Ascending:
LFB38:
	.loc 1 336 1
	.cfi_startproc
	pushl	%ebp
	.cfi_def_cfa_offset 8
	.cfi_offset 5, -8
	movl	%esp, %ebp
	.cfi_def_cfa_register 5
	subl	$16, %esp
	.loc 1 337 15
	movl	_S_Head_Node, %eax
	movl	%eax, -4(%ebp)
	.loc 1 338 15
	movl	-4(%ebp), %eax
	movl	4(%eax), %eax
	movl	%eax, -8(%ebp)
	.loc 1 339 6
	movb	$0, -9(%ebp)
	.loc 1 341 5
	cmpl	$0, -4(%ebp)
	jne	L85
	.loc 1 342 12
	movl	$0, %eax
	jmp	L86
L85:
	.loc 1 343 21
	movl	-4(%ebp), %eax
	movl	4(%eax), %eax
	.loc 1 343 10
	testl	%eax, %eax
	jne	L88
	.loc 1 344 12
	movl	$1, %eax
	jmp	L86
L91:
	.loc 1 351 22
	movl	-4(%ebp), %eax
	movl	(%eax), %edx
	.loc 1 351 39
	movl	-8(%ebp), %eax
	movl	(%eax), %eax
	.loc 1 351 11
	cmpl	%eax, %edx
	jle	L90
	.loc 1 353 28
	movl	-8(%ebp), %eax
	movl	(%eax), %eax
	.loc 1 353 16
	movb	%al, -9(%ebp)
	.loc 1 354 40
	movl	-4(%ebp), %eax
	movl	(%eax), %edx
	.loc 1 354 28
	movl	-8(%ebp), %eax
	movl	%edx, (%eax)
	.loc 1 355 28
	movzbl	-9(%ebp), %edx
	movl	-4(%ebp), %eax
	movl	%edx, (%eax)
L90:
	.loc 1 357 20
	movl	-8(%ebp), %eax
	movl	4(%eax), %eax
	movl	%eax, -8(%ebp)
L89:
	.loc 1 349 12
	cmpl	$0, -8(%ebp)
	jne	L91
	.loc 1 359 18
	movl	-4(%ebp), %eax
	movl	4(%eax), %eax
	movl	%eax, -4(%ebp)
	.loc 1 360 9
	cmpl	$0, -4(%ebp)
	je	L88
	.loc 1 361 20
	movl	-4(%ebp), %eax
	movl	4(%eax), %eax
	movl	%eax, -8(%ebp)
L88:
	.loc 1 347 10
	cmpl	$0, -4(%ebp)
	jne	L89
	.loc 1 364 10
	movl	$1, %eax
L86:
	.loc 1 365 1
	leave
	.cfi_restore 5
	.cfi_def_cfa 4, 4
	ret
	.cfi_endproc
LFE38:
	.globl	_S_Sort_List_Descending
	.def	_S_Sort_List_Descending;	.scl	2;	.type	32;	.endef
_S_Sort_List_Descending:
LFB39:
	.loc 1 368 1
	.cfi_startproc
	pushl	%ebp
	.cfi_def_cfa_offset 8
	.cfi_offset 5, -8
	movl	%esp, %ebp
	.cfi_def_cfa_register 5
	subl	$16, %esp
	.loc 1 369 15
	movl	_S_Head_Node, %eax
	movl	%eax, -4(%ebp)
	.loc 1 370 15
	movl	-4(%ebp), %eax
	movl	4(%eax), %eax
	movl	%eax, -8(%ebp)
	.loc 1 371 6
	movb	$0, -9(%ebp)
	.loc 1 373 5
	cmpl	$0, -4(%ebp)
	jne	L94
	.loc 1 374 12
	movl	$0, %eax
	jmp	L95
L94:
	.loc 1 375 21
	movl	-4(%ebp), %eax
	movl	4(%eax), %eax
	.loc 1 375 10
	testl	%eax, %eax
	jne	L97
	.loc 1 376 12
	movl	$1, %eax
	jmp	L95
L100:
	.loc 1 383 22
	movl	-4(%ebp), %eax
	movl	(%eax), %edx
	.loc 1 383 39
	movl	-8(%ebp), %eax
	movl	(%eax), %eax
	.loc 1 383 11
	cmpl	%eax, %edx
	jge	L99
	.loc 1 385 28
	movl	-8(%ebp), %eax
	movl	(%eax), %eax
	.loc 1 385 16
	movb	%al, -9(%ebp)
	.loc 1 386 40
	movl	-4(%ebp), %eax
	movl	(%eax), %edx
	.loc 1 386 28
	movl	-8(%ebp), %eax
	movl	%edx, (%eax)
	.loc 1 387 28
	movzbl	-9(%ebp), %edx
	movl	-4(%ebp), %eax
	movl	%edx, (%eax)
L99:
	.loc 1 389 20
	movl	-8(%ebp), %eax
	movl	4(%eax), %eax
	movl	%eax, -8(%ebp)
L98:
	.loc 1 381 12
	cmpl	$0, -8(%ebp)
	jne	L100
	.loc 1 391 18
	movl	-4(%ebp), %eax
	movl	4(%eax), %eax
	movl	%eax, -4(%ebp)
	.loc 1 392 9
	cmpl	$0, -4(%ebp)
	je	L97
	.loc 1 393 20
	movl	-4(%ebp), %eax
	movl	4(%eax), %eax
	movl	%eax, -8(%ebp)
L97:
	.loc 1 379 10
	cmpl	$0, -4(%ebp)
	jne	L98
	.loc 1 396 10
	movl	$1, %eax
L95:
	.loc 1 397 1
	leave
	.cfi_restore 5
	.cfi_def_cfa 4, 4
	ret
	.cfi_endproc
LFE39:
Letext0:
	.file 3 "c:/mingw/include/stdio.h"
	.file 4 "g:/my_svn/git/myprograms/others/completed/singly_linked_list/code/Typedef.h"
	.file 5 "g:/my_svn/git/myprograms/others/completed/singly_linked_list/code/Extern.h"
	.file 6 "g:/my_svn/git/myprograms/others/completed/singly_linked_list/code/Singly_Linked_List.h"