	.file	"Main.c"
	.text
Ltext0:
	.globl	_Byte_Dest
	.bss
_Byte_Dest:
	.space 10
	.globl	_Byte_Source
	.section .rdata,"dr"
_Byte_Source:
	.byte	9
	.byte	8
	.byte	7
	.byte	6
	.byte	5
	.byte	4
	.byte	3
	.byte	2
	.byte	1
	.byte	0
	.comm	_Selection, 4, 2
	.comm	_i, 4, 2
	.globl	_Temp
	.bss
	.align 4
_Temp:
	.space 4
	.def	___main;	.scl	2;	.type	32;	.endef
	.section .rdata,"dr"
LC0:
	.ascii "String Own Function:\12\0"
LC1:
	.ascii "%d. MEMCPY\12\0"
LC2:
	.ascii "%d. MEMMOVE\12\0"
LC3:
	.ascii "%d. STRCPY\12\0"
LC4:
	.ascii "%d. STRNCPY\12\0"
LC5:
	.ascii "%d. MEMCMP\12\0"
LC6:
	.ascii "%d. STRCMP\12\0"
LC7:
	.ascii "%d. STRNCMP\12\0"
LC8:
	.ascii "%d. STRNCAT\12\0"
LC9:
	.ascii "%d. STRCAT\12\0"
LC10:
	.ascii "%d. MEMSET\12\0"
LC11:
	.ascii "%d. STRLEN\12\0"
LC12:
	.ascii "%d. STRREV\12\0"
LC13:
	.ascii "%d. MEMCHR\12\0"
LC14:
	.ascii "%d. STRCHR\12\0"
LC15:
	.ascii "%d. STRSTR\12\0"
LC16:
	.ascii "%d. STRCSPN\12\0"
LC17:
	.ascii "%d. STRPBRK\12\0"
LC18:
	.ascii "\12Enter Selection: \0"
LC19:
	.ascii "%d\0"
LC20:
	.ascii "0123456789\0"
LC21:
	.ascii "'Byte_Source' is greater\0"
LC22:
	.ascii "Both are same\0"
LC23:
	.ascii "012345\0"
LC24:
	.ascii "9876543210\0"
LC25:
	.ascii "'Byte_Dest' Before:\0"
LC26:
	.ascii "'Byte_Dest' After:\0"
LC27:
	.ascii "Size is of 'Byte_Source'=%d\0"
LC28:
	.ascii "ExampleStr\0"
LC29:
	.ascii "'p' found at position %d.\12\0"
LC30:
	.ascii "'p' not found.\0"
LC31:
	.ascii "found at %d\12\0"
LC32:
	.ascii "simple\0"
	.align 4
LC33:
	.ascii "The first number in str is at position %d.\12\0"
LC34:
	.ascii "Vowels in '%s': \0"
LC35:
	.ascii "%c \0"
	.text
	.globl	_main
	.def	_main;	.scl	2;	.type	32;	.endef
_main:
LFB7:
	.file 1 "/cygdrive/f/My_SVN/Google_Drive/Official/Others/Programs/Others/Completed/String_Own_Fns/platform/Linux/../../code/Main.c"
	.loc 1 7 0
	.cfi_startproc
	pushl	%ebp
	.cfi_def_cfa_offset 8
	.cfi_offset 5, -8
	movl	%esp, %ebp
	.cfi_def_cfa_register 5
	andl	$-16, %esp
	subl	$144, %esp
	.loc 1 7 0
	call	___main
	.loc 1 9 0
	movl	$LC0, (%esp)
	call	_puts
	.loc 1 11 0
	movl	$0, 4(%esp)
	movl	$LC1, (%esp)
	call	_printf
	.loc 1 12 0
	movl	$1, 4(%esp)
	movl	$LC2, (%esp)
	call	_printf
	.loc 1 13 0
	movl	$2, 4(%esp)
	movl	$LC3, (%esp)
	call	_printf
	.loc 1 14 0
	movl	$3, 4(%esp)
	movl	$LC4, (%esp)
	call	_printf
	.loc 1 15 0
	movl	$4, 4(%esp)
	movl	$LC5, (%esp)
	call	_printf
	.loc 1 16 0
	movl	$5, 4(%esp)
	movl	$LC6, (%esp)
	call	_printf
	.loc 1 17 0
	movl	$6, 4(%esp)
	movl	$LC7, (%esp)
	call	_printf
	.loc 1 18 0
	movl	$7, 4(%esp)
	movl	$LC8, (%esp)
	call	_printf
	.loc 1 19 0
	movl	$8, 4(%esp)
	movl	$LC9, (%esp)
	call	_printf
	.loc 1 20 0
	movl	$9, 4(%esp)
	movl	$LC10, (%esp)
	call	_printf
	.loc 1 21 0
	movl	$10, 4(%esp)
	movl	$LC11, (%esp)
	call	_printf
	.loc 1 22 0
	movl	$11, 4(%esp)
	movl	$LC12, (%esp)
	call	_printf
	.loc 1 23 0
	movl	$12, 4(%esp)
	movl	$LC13, (%esp)
	call	_printf
	.loc 1 24 0
	movl	$13, 4(%esp)
	movl	$LC14, (%esp)
	call	_printf
	.loc 1 25 0
	movl	$14, 4(%esp)
	movl	$LC15, (%esp)
	call	_printf
	.loc 1 26 0
	movl	$15, 4(%esp)
	movl	$LC16, (%esp)
	call	_printf
	.loc 1 27 0
	movl	$16, 4(%esp)
	movl	$LC17, (%esp)
	call	_printf
L37:
	.loc 1 31 0
	movl	$LC18, (%esp)
	call	_printf
	.loc 1 32 0
	movl	$_Selection, 4(%esp)
	movl	$LC19, (%esp)
	call	_scanf
	.loc 1 34 0
	movl	_Selection, %eax
	cmpl	$16, %eax
	ja	L2
	movl	L4(,%eax,4), %eax
	jmp	*%eax
	.section .rdata,"dr"
	.align 4
L4:
	.long	L3
	.long	L5
	.long	L6
	.long	L7
	.long	L8
	.long	L9
	.long	L10
	.long	L11
	.long	L12
	.long	L13
	.long	L14
	.long	L15
	.long	L16
	.long	L17
	.long	L18
	.long	L19
	.long	L20
	.text
L3:
	.loc 1 38 0
	movl	$_Byte_Dest, (%esp)
	call	_Display
	.loc 1 39 0
	movl	$40, 8(%esp)
	movl	$_Byte_Source, 4(%esp)
	movl	$_Byte_Dest, (%esp)
	call	_memcpy_M
	.loc 1 40 0
	movl	$_Byte_Dest, (%esp)
	call	_Display
	.loc 1 42 0
	jmp	L21
L5:
	.loc 1 45 0
	movl	$_Byte_Dest, (%esp)
	call	_Display
	.loc 1 46 0
	movl	$40, 8(%esp)
	movl	$_Byte_Source, 4(%esp)
	movl	$_Byte_Dest, (%esp)
	call	_memmove_M
	.loc 1 47 0
	movl	$_Byte_Dest, (%esp)
	call	_Display
	.loc 1 49 0
	jmp	L21
L6:
	.loc 1 52 0
	movl	$_Byte_Dest, (%esp)
	call	_Display
	.loc 1 53 0
	movl	$_Byte_Source, 4(%esp)
	movl	$_Byte_Dest, (%esp)
	call	_strcpy_M
	.loc 1 54 0
	movl	$_Byte_Dest, (%esp)
	call	_Display
	.loc 1 56 0
	jmp	L21
L7:
	.loc 1 59 0
	movl	$_Byte_Dest, (%esp)
	call	_Display
	.loc 1 60 0
	movl	$4, 8(%esp)
	movl	$_Byte_Source, 4(%esp)
	movl	$_Byte_Dest, (%esp)
	call	_strncpy_M
	.loc 1 61 0
	movl	$_Byte_Dest, (%esp)
	call	_Display
	.loc 1 63 0
	jmp	L21
L8:
	.loc 1 66 0
	movl	$LC20, 4(%esp)
	movl	$_Byte_Dest, (%esp)
	call	_strcpy_M
	.loc 1 67 0
	movl	$10, 8(%esp)
	movl	$_Byte_Dest, 4(%esp)
	movl	$_Byte_Source, (%esp)
	call	_memcmp_M
	movl	%eax, _Temp
	.loc 1 72 0
	movl	_Temp, %eax
	testl	%eax, %eax
	je	L22
	.loc 1 74 0
	movl	$LC21, (%esp)
	call	_puts
	.loc 1 81 0
	jmp	L21
L22:
	.loc 1 78 0
	movl	$LC22, (%esp)
	call	_puts
	.loc 1 81 0
	jmp	L21
L9:
	.loc 1 84 0
	movl	$LC20, 4(%esp)
	movl	$_Byte_Dest, (%esp)
	call	_strcpy_M
	.loc 1 85 0
	movl	$_Byte_Dest, 4(%esp)
	movl	$_Byte_Source, (%esp)
	call	_strcmp_M
	movl	%eax, _Temp
	.loc 1 90 0
	movl	_Temp, %eax
	testl	%eax, %eax
	je	L24
	.loc 1 92 0
	movl	$LC21, (%esp)
	call	_puts
	.loc 1 99 0
	jmp	L21
L24:
	.loc 1 96 0
	movl	$LC22, (%esp)
	call	_puts
	.loc 1 99 0
	jmp	L21
L10:
	.loc 1 102 0
	movl	$LC20, 4(%esp)
	movl	$_Byte_Dest, (%esp)
	call	_strcpy_M
	.loc 1 103 0
	movl	$10, 8(%esp)
	movl	$_Byte_Dest, 4(%esp)
	movl	$_Byte_Source, (%esp)
	call	_strncmp_M
	movl	%eax, _Temp
	.loc 1 108 0
	movl	_Temp, %eax
	testl	%eax, %eax
	je	L26
	.loc 1 110 0
	movl	$LC21, (%esp)
	call	_puts
	.loc 1 117 0
	jmp	L21
L26:
	.loc 1 114 0
	movl	$LC22, (%esp)
	call	_puts
	.loc 1 117 0
	jmp	L21
L11:
LBB2:
	.loc 1 122 0
	movl	$LC23, 4(%esp)
	movl	$_Byte_Dest, (%esp)
	call	_strcpy_M
	.loc 1 123 0
	movl	$LC24, 4(%esp)
	leal	114(%esp), %eax
	movl	%eax, (%esp)
	call	_strcpy_M
	.loc 1 124 0
	movl	$4, 8(%esp)
	leal	114(%esp), %eax
	movl	%eax, 4(%esp)
	movl	$_Byte_Dest, (%esp)
	call	_strncat_M
	.loc 1 125 0
	movl	$_Byte_Dest, (%esp)
	call	_puts
LBE2:
	.loc 1 128 0
	jmp	L21
L12:
	.loc 1 131 0
	movl	$LC25, (%esp)
	call	_puts
	.loc 1 132 0
	movl	$_Byte_Dest, (%esp)
	call	_Display
	.loc 1 133 0
	movl	$_Byte_Source, 4(%esp)
	movl	$_Byte_Dest, (%esp)
	call	_strcat_M
	.loc 1 134 0
	movl	$LC26, (%esp)
	call	_puts
	.loc 1 135 0
	movl	$_Byte_Dest, (%esp)
	call	_Display
	.loc 1 137 0
	jmp	L21
L13:
	.loc 1 140 0
	movl	$LC25, (%esp)
	call	_puts
	.loc 1 141 0
	movl	$_Byte_Dest, (%esp)
	call	_Display
	.loc 1 142 0
	movl	$10, 8(%esp)
	movl	$5, 4(%esp)
	movl	$_Byte_Dest, (%esp)
	call	_memset_M
	.loc 1 143 0
	movl	$LC26, (%esp)
	call	_puts
	.loc 1 144 0
	movl	$_Byte_Dest, (%esp)
	call	_Display
	.loc 1 146 0
	jmp	L21
L14:
	.loc 1 149 0
	movl	$_Byte_Source, (%esp)
	call	_strlen_M
	movl	%eax, 4(%esp)
	movl	$LC27, (%esp)
	call	_printf
	.loc 1 151 0
	jmp	L21
L15:
	.loc 1 154 0
	movl	$LC20, 4(%esp)
	movl	$_Byte_Dest, (%esp)
	call	_strcpy_M
	.loc 1 155 0
	movl	$LC25, (%esp)
	call	_puts
	.loc 1 156 0
	movl	$_Byte_Dest, (%esp)
	call	_Display
	.loc 1 157 0
	movl	$_Byte_Dest, (%esp)
	call	_strrev_M
	.loc 1 158 0
	movl	$LC26, (%esp)
	call	_puts
	.loc 1 159 0
	movl	$_Byte_Dest, (%esp)
	call	_Display
	.loc 1 161 0
	jmp	L21
L16:
LBB3:
	.loc 1 167 0
	movl	$LC28, 4(%esp)
	movl	$_Byte_Dest, (%esp)
	call	_strcpy_M
	.loc 1 168 0
	movl	$10, 8(%esp)
	movl	$112, 4(%esp)
	movl	$_Byte_Dest, (%esp)
	call	_memchr_M
	movl	%eax, 132(%esp)
	.loc 1 169 0
	cmpl	$0, 132(%esp)
	je	L28
	.loc 1 170 0
	movl	132(%esp), %eax
	movl	$_Byte_Dest, %edx
	movl	$1, %ecx
	subl	%edx, %ecx
	movl	%ecx, %edx
	addl	%edx, %eax
	movl	%eax, 4(%esp)
	movl	$LC29, (%esp)
	call	_printf
LBE3:
	.loc 1 175 0
	jmp	L21
L28:
LBB4:
	.loc 1 172 0
	movl	$LC30, (%esp)
	call	_puts
LBE4:
	.loc 1 175 0
	jmp	L21
L17:
LBB5:
	.loc 1 179 0
	movl	$1936287828, 90(%esp)
	movl	$544434464, 94(%esp)
	movl	$1634934881, 98(%esp)
	movl	$1701605485, 102(%esp)
	movl	$1920234272, 106(%esp)
	movl	$6778473, 110(%esp)
	.loc 1 181 0
	movl	$115, 4(%esp)
	leal	90(%esp), %eax
	movl	%eax, (%esp)
	call	_strchr_M
	movl	%eax, 140(%esp)
	.loc 1 182 0
	jmp	L30
L31:
	.loc 1 184 0
	movl	140(%esp), %edx
	leal	90(%esp), %eax
	subl	%eax, %edx
	movl	%edx, %eax
	addl	$1, %eax
	movl	%eax, 4(%esp)
	movl	$LC31, (%esp)
	call	_printf
	.loc 1 185 0
	movl	140(%esp), %eax
	addl	$1, %eax
	movl	$115, 4(%esp)
	movl	%eax, (%esp)
	call	_strchr_M
	movl	%eax, 140(%esp)
L30:
	.loc 1 182 0 discriminator 1
	cmpl	$0, 140(%esp)
	jne	L31
LBE5:
	.loc 1 189 0
	jmp	L21
L18:
LBB6:
	.loc 1 193 0
	movl	$1936287828, 66(%esp)
	movl	$544434464, 70(%esp)
	movl	$1769152609, 74(%esp)
	movl	$1701605485, 78(%esp)
	movl	$1920234272, 82(%esp)
	movl	$6778473, 86(%esp)
	.loc 1 195 0
	movl	$LC32, 4(%esp)
	leal	66(%esp), %eax
	movl	%eax, (%esp)
	call	_strstr_M
	movl	%eax, 128(%esp)
	.loc 1 196 0
	movl	128(%esp), %eax
	movl	$1886216563, (%eax)
	movw	$25964, 4(%eax)
	.loc 1 197 0
	leal	66(%esp), %eax
	movl	%eax, (%esp)
	call	_puts
LBE6:
	.loc 1 200 0
	jmp	L21
L19:
LBB7:
	.loc 1 204 0
	movl	$1633837926, 59(%esp)
	movw	$13111, 63(%esp)
	movb	$0, 65(%esp)
	.loc 1 205 0
	movl	$875770417, 48(%esp)
	movl	$943142453, 52(%esp)
	movw	$12345, 56(%esp)
	movb	$0, 58(%esp)
	.loc 1 207 0
	leal	48(%esp), %eax
	movl	%eax, 4(%esp)
	leal	59(%esp), %eax
	movl	%eax, (%esp)
	call	_strcspn_M
	movl	%eax, 124(%esp)
	.loc 1 208 0
	movl	124(%esp), %eax
	addl	$1, %eax
	movl	%eax, 4(%esp)
	movl	$LC33, (%esp)
	call	_printf
LBE7:
	.loc 1 211 0
	jmp	L21
L20:
LBB8:
	.loc 1 215 0
	movl	$1936287828, 24(%esp)
	movl	$544434464, 28(%esp)
	movl	$1634934881, 32(%esp)
	movl	$1701605485, 36(%esp)
	movl	$1920234272, 40(%esp)
	movl	$6778473, 44(%esp)
	.loc 1 216 0
	movl	$1869178209, 18(%esp)
	movw	$117, 22(%esp)
	.loc 1 218 0
	leal	24(%esp), %eax
	movl	%eax, 4(%esp)
	movl	$LC34, (%esp)
	call	_printf
	.loc 1 219 0
	leal	18(%esp), %eax
	movl	%eax, 4(%esp)
	leal	24(%esp), %eax
	movl	%eax, (%esp)
	call	_strpbrk_M
	movl	%eax, 136(%esp)
	.loc 1 220 0
	jmp	L32
L33:
	.loc 1 222 0
	movl	136(%esp), %eax
	movzbl	(%eax), %eax
	movsbl	%al, %eax
	movl	%eax, 4(%esp)
	movl	$LC35, (%esp)
	call	_printf
	.loc 1 223 0
	movl	136(%esp), %eax
	leal	1(%eax), %edx
	leal	18(%esp), %eax
	movl	%eax, 4(%esp)
	movl	%edx, (%esp)
	call	_strpbrk_M
	movl	%eax, 136(%esp)
L32:
	.loc 1 220 0 discriminator 1
	cmpl	$0, 136(%esp)
	jne	L33
LBE8:
	.loc 1 227 0
	jmp	L21
L2:
	.loc 1 229 0
	movl	$0, %eax
	jmp	L38
L21:
	.loc 1 233 0
	movl	$0, _i
	jmp	L35
L36:
	.loc 1 234 0 discriminator 2
	movl	_i, %eax
	movb	$0, _Byte_Dest(%eax)
	.loc 1 233 0 discriminator 2
	movl	_i, %eax
	addl	$1, %eax
	movl	%eax, _i
L35:
	.loc 1 233 0 is_stmt 0 discriminator 1
	movl	_i, %eax
	cmpl	$9, %eax
	jbe	L36
	.loc 1 235 0 is_stmt 1
	jmp	L37
L38:
	.loc 1 239 0
	leave
	.cfi_restore 5
	.cfi_def_cfa 4, 4
	ret
	.cfi_endproc
LFE7:
	.section .rdata,"dr"
LC36:
	.ascii "Array[%d]=%d\12\0"
	.text
	.globl	_Display
	.def	_Display;	.scl	2;	.type	32;	.endef
_Display:
LFB8:
	.loc 1 242 0
	.cfi_startproc
	pushl	%ebp
	.cfi_def_cfa_offset 8
	.cfi_offset 5, -8
	movl	%esp, %ebp
	.cfi_def_cfa_register 5
	subl	$40, %esp
	.loc 1 245 0
	movb	$0, -9(%ebp)
	jmp	L40
L41:
	.loc 1 246 0 discriminator 2
	movzbl	-9(%ebp), %edx
	movl	8(%ebp), %eax
	addl	%edx, %eax
	movzbl	(%eax), %eax
	movsbl	%al, %edx
	movzbl	-9(%ebp), %eax
	movl	%edx, 8(%esp)
	movl	%eax, 4(%esp)
	movl	$LC36, (%esp)
	call	_printf
	.loc 1 245 0 discriminator 2
	movzbl	-9(%ebp), %eax
	addl	$1, %eax
	movb	%al, -9(%ebp)
L40:
	.loc 1 245 0 is_stmt 0 discriminator 1
	cmpb	$9, -9(%ebp)
	jbe	L41
	.loc 1 247 0 is_stmt 1
	leave
	.cfi_restore 5
	.cfi_def_cfa 4, 4
	ret
	.cfi_endproc
LFE8:
Letext0:
	.file 2 "/cygdrive/f/My_SVN/Google_Drive/Official/Others/Programs/Others/Completed/String_Own_Fns/platform/Linux/../../code/Typedef.h"
	.file 3 "/cygdrive/f/My_SVN/Google_Drive/Official/Others/Programs/Others/Completed/String_Own_Fns/platform/Linux/../../code/Main.h"