	.file	"stack.c"
	.text
Ltext0:
	.comm	_stack, 20, 2
	.globl	_Top
	.bss
	.align 4
_Top:
	.space 4
	.section .rdata,"dr"
LC0:
	.ascii "\12 STACK Full!!!\0"
	.text
	.globl	_push
	.def	_push;	.scl	2;	.type	32;	.endef
_push:
LFB13:
	.file 1 "G:/My_SVN/Git/MyPrograms/Others/Completed/Stack/platform/Windows/../../code/Stack.c"
	.loc 1 4 1
	.cfi_startproc
	pushl	%ebp
	.cfi_def_cfa_offset 8
	.cfi_offset 5, -8
	movl	%esp, %ebp
	.cfi_def_cfa_register 5
	subl	$24, %esp
	.loc 1 5 6
	call	_IsFull
	.loc 1 5 5
	testl	%eax, %eax
	jne	L2
	.loc 1 7 5
	movl	$LC0, (%esp)
	call	_puts
	.loc 1 8 12
	movl	$0, %eax
	jmp	L3
L2:
	.loc 1 11 14
	movl	_Top, %eax
	leal	1(%eax), %edx
	movl	%edx, _Top
	.loc 1 11 18
	movl	8(%ebp), %edx
	movl	%edx, _stack(,%eax,4)
	.loc 1 13 10
	movl	$1, %eax
L3:
	.loc 1 14 1
	leave
	.cfi_restore 5
	.cfi_def_cfa 4, 4
	ret
	.cfi_endproc
LFE13:
	.section .rdata,"dr"
LC1:
	.ascii "\12 STACK Empty!!!\0"
	.text
	.globl	_pop
	.def	_pop;	.scl	2;	.type	32;	.endef
_pop:
LFB14:
	.loc 1 17 1
	.cfi_startproc
	pushl	%ebp
	.cfi_def_cfa_offset 8
	.cfi_offset 5, -8
	movl	%esp, %ebp
	.cfi_def_cfa_register 5
	subl	$24, %esp
	.loc 1 18 6
	call	_IsEmpty
	.loc 1 18 5
	testl	%eax, %eax
	jne	L5
	.loc 1 20 5
	movl	$LC1, (%esp)
	call	_puts
	.loc 1 21 12
	movl	$0, %eax
	jmp	L6
L5:
	.loc 1 24 20
	movl	_Top, %eax
	subl	$1, %eax
	.loc 1 24 12
	movl	%eax, _Top
	.loc 1 24 20
	movl	_Top, %eax
	.loc 1 24 19
	movl	_stack(,%eax,4), %edx
	.loc 1 24 12
	movl	8(%ebp), %eax
	movl	%edx, (%eax)
	.loc 1 26 10
	movl	$1, %eax
L6:
	.loc 1 27 1
	leave
	.cfi_restore 5
	.cfi_def_cfa 4, 4
	ret
	.cfi_endproc
LFE14:
	.def	_IsEmpty;	.scl	3;	.type	32;	.endef
_IsEmpty:
LFB15:
	.loc 1 30 1
	.cfi_startproc
	pushl	%ebp
	.cfi_def_cfa_offset 8
	.cfi_offset 5, -8
	movl	%esp, %ebp
	.cfi_def_cfa_register 5
	.loc 1 31 9
	movl	_Top, %eax
	.loc 1 31 5
	testl	%eax, %eax
	jne	L8
	.loc 1 32 12
	movl	$0, %eax
	jmp	L9
L8:
	.loc 1 34 12
	movl	$-1, %eax
L9:
	.loc 1 35 1
	popl	%ebp
	.cfi_restore 5
	.cfi_def_cfa 4, 4
	ret
	.cfi_endproc
LFE15:
	.def	_IsFull;	.scl	3;	.type	32;	.endef
_IsFull:
LFB16:
	.loc 1 38 1
	.cfi_startproc
	pushl	%ebp
	.cfi_def_cfa_offset 8
	.cfi_offset 5, -8
	movl	%esp, %ebp
	.cfi_def_cfa_register 5
	.loc 1 39 9
	movl	_Top, %eax
	.loc 1 39 5
	cmpl	$5, %eax
	jne	L11
	.loc 1 40 12
	movl	$0, %eax
	jmp	L12
L11:
	.loc 1 42 12
	movl	$-1, %eax
L12:
	.loc 1 43 1
	popl	%ebp
	.cfi_restore 5
	.cfi_def_cfa 4, 4
	ret
	.cfi_endproc
LFE16:
Letext0:
	.file 2 "c:/mingw/include/stdio.h"
	.file 3 "g:/my_svn/git/myprograms/others/completed/stack/code/Stack.h"